(lp0
(dp1
S'GUCCI'
p2
I0
sS'BURBERRY'
p3
I0
sS'GUESS'
p4
I0
sS'LACOSTE'
p5
I0
sS'NEWBALANCE'
p6
I0
sS'ADIDAS'
p7
I0
sS'NIKE'
p8
I0
sS'LOUISVUITTON'
p9
I0
sS'STUSSY'
p10
I0
sS'DIESEL'
p11
I0
sS'VANS'
p12
I0
sS'BAPE'
p13
I0
sS'RALPHLAUREN'
p14
I0
sS'ZARA'
p15
I0
sS'ARMANI'
p16
I0
sS'CARHARTT'
p17
I0
sS'LEVIS'
p18
I0
sS'CALVINKLEIN'
p19
I0
sS'COMMEDESGARCONS'
p20
I0
sS'TIMBERLAND'
p21
I0
sS'APC'
p22
I1
sS'UNIQLO'
p23
I0
sS'GAP'
p24
I0
sS'GIVENCHY'
p25
I0
sa(dp26
g3
I0
sg4
I0
sg10
I0
sg5
I0
sg7
I0
sg8
I0
sg11
I0
sg9
I0
sg6
I0
sg12
I0
sg13
I0
sg14
I0
sg25
I0
sg21
I0
sg2
I0
sg16
I0
sg18
I1
sg19
I0
sg15
I0
sg22
I0
sg23
I0
sg24
I0
sg17
I0
sg20
I0
sa(dp27
g3
I0
sg4
I0
sg5
I0
sg6
I0
sg7
I0
sg8
I1
sg9
I0
sg10
I0
sg11
I0
sg12
I0
sg13
I0
sg14
I0
sg24
I0
sg15
I0
sg2
I0
sg16
I0
sg18
I0
sg19
I0
sg21
I0
sg22
I0
sg23
I0
sg25
I0
sg17
I0
sg20
I0
sa(dp28
g3
I1
sg4
I0
sg10
I0
sg5
I0
sg7
I0
sg8
I0
sg11
I0
sg9
I0
sg6
I0
sg12
I0
sg13
I0
sg14
I0
sg21
I0
sg2
I0
sg16
I0
sg18
I0
sg19
I0
sg20
I0
sg15
I0
sg22
I0
sg23
I0
sg24
I0
sg17
I0
sg25
I0
sa(dp29
g3
I0
sg4
I0
sg5
I0
sg6
I0
sg7
I0
sg8
I0
sg9
I0
sg10
I0
sg11
I0
sg12
I0
sg13
I0
sg14
I0
sg25
I0
sg15
I0
sg2
I1
sg16
I0
sg18
I0
sg19
I0
sg21
I0
sg22
I0
sg23
I0
sg24
I0
sg17
I0
sg20
I0
sa(dp30
g3
I0
sg4
I0
sg10
I0
sg5
I0
sg7
I0
sg8
I0
sg11
I0
sg9
I0
sg6
I0
sg12
I0
sg13
I0
sg14
I0
sg24
I0
sg21
I0
sg2
I0
sg16
I0
sg18
I0
sg19
I0
sg15
I0
sg22
I0
sg23
I0
sg25
I1
sg17
I0
sg20
I0
sa(dp31
g3
I0
sg4
I0
sg5
I0
sg6
I0
sg7
I0
sg8
I0
sg9
I0
sg10
I0
sg11
I0
sg12
I0
sg13
I0
sg14
I0
sg15
I0
sg2
I0
sg16
I0
sg18
I0
sg19
I0
sg20
I0
sg21
I0
sg22
I0
sg23
I1
sg24
I0
sg17
I0
sg25
I0
sa(dp32
g3
I0
sg4
I0
sg10
I0
sg5
I0
sg7
I0
sg8
I1
sg11
I0
sg9
I0
sg6
I0
sg12
I0
sg13
I0
sg14
I0
sg25
I0
sg21
I0
sg2
I0
sg16
I0
sg18
I0
sg19
I0
sg15
I0
sg22
I0
sg23
I0
sg24
I0
sg17
I0
sg20
I0
sa(dp33
g3
I0
sg4
I1
sg5
I0
sg6
I0
sg7
I0
sg8
I0
sg9
I0
sg10
I0
sg11
I0
sg12
I0
sg13
I0
sg14
I0
sg24
I0
sg15
I0
sg2
I0
sg16
I0
sg18
I0
sg19
I0
sg21
I0
sg22
I0
sg23
I0
sg25
I0
sg17
I0
sg20
I0
sa(dp34
g3
I0
sg4
I0
sg10
I0
sg5
I0
sg7
I1
sg8
I0
sg11
I0
sg9
I0
sg6
I0
sg12
I0
sg13
I0
sg14
I0
sg21
I0
sg2
I0
sg16
I0
sg18
I0
sg19
I0
sg20
I0
sg15
I0
sg22
I0
sg23
I0
sg24
I0
sg17
I0
sg25
I0
sa(dp35
g3
I0
sg4
I0
sg5
I0
sg6
I0
sg7
I0
sg8
I0
sg9
I0
sg10
I0
sg11
I0
sg12
I1
sg13
I0
sg14
I0
sg25
I0
sg15
I0
sg2
I0
sg16
I0
sg18
I0
sg19
I0
sg21
I0
sg22
I0
sg23
I0
sg24
I0
sg17
I0
sg20
I0
sa(dp36
g3
I0
sg4
I0
sg10
I0
sg5
I0
sg7
I0
sg8
I0
sg11
I0
sg9
I0
sg6
I0
sg12
I0
sg13
I0
sg14
I0
sg24
I0
sg21
I0
sg2
I0
sg16
I0
sg18
I1
sg19
I0
sg15
I0
sg22
I0
sg23
I0
sg25
I0
sg17
I0
sg20
I0
sa(dp37
g3
I0
sg4
I0
sg5
I0
sg6
I0
sg7
I0
sg8
I0
sg9
I0
sg10
I0
sg11
I0
sg12
I0
sg13
I0
sg14
I0
sg15
I0
sg2
I0
sg16
I1
sg18
I0
sg19
I0
sg20
I0
sg21
I0
sg22
I0
sg23
I0
sg24
I0
sg17
I0
sg25
I0
sa(dp38
g3
I0
sg4
I0
sg10
I0
sg5
I0
sg7
I0
sg8
I1
sg11
I0
sg9
I0
sg6
I0
sg12
I0
sg13
I0
sg14
I0
sg25
I0
sg21
I0
sg2
I0
sg16
I0
sg18
I0
sg19
I0
sg15
I0
sg22
I0
sg23
I0
sg24
I0
sg17
I0
sg20
I0
sa(dp39
g3
I0
sg4
I0
sg5
I0
sg6
I0
sg7
I0
sg8
I0
sg9
I0
sg10
I0
sg11
I1
sg12
I0
sg13
I0
sg14
I0
sg24
I0
sg15
I0
sg2
I0
sg16
I0
sg18
I0
sg19
I0
sg21
I0
sg22
I0
sg23
I0
sg25
I0
sg17
I0
sg20
I0
sa(dp40
g3
I0
sg4
I0
sg10
I0
sg5
I0
sg7
I0
sg8
I0
sg11
I0
sg9
I0
sg6
I1
sg12
I0
sg13
I0
sg14
I0
sg21
I0
sg2
I0
sg16
I0
sg18
I0
sg19
I0
sg20
I0
sg15
I0
sg22
I0
sg23
I0
sg24
I0
sg17
I0
sg25
I0
sa(dp41
g3
I0
sg4
I0
sg5
I0
sg6
I0
sg7
I1
sg8
I0
sg9
I0
sg10
I0
sg11
I0
sg12
I0
sg13
I0
sg14
I0
sg25
I0
sg15
I0
sg2
I0
sg16
I0
sg18
I0
sg19
I0
sg21
I0
sg22
I0
sg23
I0
sg24
I0
sg17
I0
sg20
I0
sa(dp42
g3
I0
sg4
I0
sg10
I0
sg5
I0
sg7
I0
sg8
I0
sg11
I0
sg9
I0
sg6
I0
sg12
I0
sg13
I0
sg14
I0
sg24
I0
sg21
I1
sg2
I0
sg16
I0
sg18
I0
sg19
I0
sg15
I0
sg22
I0
sg23
I0
sg25
I0
sg17
I0
sg20
I0
sa(dp43
g3
I0
sg4
I0
sg5
I0
sg6
I0
sg7
I0
sg8
I1
sg9
I0
sg10
I0
sg11
I0
sg12
I0
sg13
I0
sg14
I0
sg15
I0
sg2
I0
sg16
I0
sg18
I0
sg19
I0
sg20
I0
sg21
I0
sg22
I0
sg23
I0
sg24
I0
sg17
I0
sg25
I0
sa(dp44
g3
I0
sg4
I0
sg10
I0
sg5
I0
sg7
I0
sg8
I0
sg11
I1
sg9
I0
sg6
I0
sg12
I0
sg13
I0
sg14
I0
sg25
I0
sg21
I0
sg2
I0
sg16
I0
sg18
I0
sg19
I0
sg15
I0
sg22
I0
sg23
I0
sg24
I0
sg17
I0
sg20
I0
sa(dp45
g3
I0
sg4
I0
sg5
I0
sg6
I0
sg7
I0
sg8
I0
sg9
I0
sg10
I1
sg11
I0
sg12
I0
sg13
I0
sg14
I0
sg24
I0
sg15
I0
sg2
I0
sg16
I0
sg18
I0
sg19
I0
sg21
I0
sg22
I0
sg23
I0
sg25
I0
sg17
I0
sg20
I0
sa(dp46
g3
I0
sg4
I0
sg10
I0
sg5
I0
sg7
I0
sg8
I0
sg11
I0
sg9
I0
sg6
I0
sg12
I0
sg13
I0
sg14
I0
sg21
I0
sg2
I0
sg16
I0
sg18
I0
sg19
I0
sg20
I0
sg15
I1
sg22
I0
sg23
I0
sg24
I0
sg17
I0
sg25
I0
sa(dp47
g3
I0
sg4
I0
sg5
I0
sg6
I0
sg7
I0
sg8
I0
sg9
I0
sg10
I0
sg11
I0
sg12
I0
sg13
I0
sg14
I0
sg25
I0
sg15
I0
sg2
I0
sg16
I0
sg18
I0
sg19
I0
sg21
I0
sg22
I0
sg23
I1
sg24
I0
sg17
I0
sg20
I0
sa(dp48
g3
I0
sg4
I0
sg10
I0
sg5
I0
sg7
I0
sg8
I0
sg11
I0
sg9
I0
sg6
I0
sg12
I1
sg13
I0
sg14
I0
sg24
I0
sg21
I0
sg2
I0
sg16
I0
sg18
I0
sg19
I0
sg15
I0
sg22
I0
sg23
I0
sg25
I0
sg17
I0
sg20
I0
sa(dp49
g3
I0
sg4
I0
sg5
I0
sg6
I0
sg7
I1
sg8
I0
sg9
I0
sg10
I0
sg11
I0
sg12
I0
sg13
I0
sg14
I0
sg15
I0
sg2
I0
sg16
I0
sg18
I0
sg19
I0
sg20
I0
sg21
I0
sg22
I0
sg23
I0
sg24
I0
sg17
I0
sg25
I0
sa(dp50
g3
I0
sg4
I0
sg10
I0
sg5
I0
sg7
I0
sg8
I1
sg11
I0
sg9
I0
sg6
I0
sg12
I0
sg13
I0
sg14
I0
sg25
I0
sg21
I0
sg2
I0
sg16
I0
sg18
I0
sg19
I0
sg15
I0
sg22
I0
sg23
I0
sg24
I0
sg17
I0
sg20
I0
sa(dp51
g3
I0
sg4
I0
sg5
I0
sg6
I0
sg7
I0
sg8
I0
sg9
I0
sg10
I0
sg11
I0
sg12
I0
sg13
I0
sg14
I1
sg24
I0
sg15
I0
sg2
I0
sg16
I0
sg18
I0
sg19
I0
sg21
I0
sg22
I0
sg23
I0
sg25
I0
sg17
I0
sg20
I0
sa(dp52
g3
I0
sg4
I0
sg10
I0
sg5
I0
sg7
I1
sg8
I0
sg11
I0
sg9
I0
sg6
I0
sg12
I0
sg13
I0
sg14
I0
sg21
I0
sg2
I0
sg16
I0
sg18
I0
sg19
I0
sg20
I0
sg15
I0
sg22
I0
sg23
I0
sg24
I0
sg17
I0
sg25
I0
sa(dp53
g3
I0
sg4
I0
sg5
I0
sg6
I0
sg7
I0
sg8
I1
sg9
I0
sg10
I0
sg11
I0
sg12
I0
sg13
I0
sg14
I0
sg25
I0
sg15
I0
sg2
I0
sg16
I0
sg18
I0
sg19
I0
sg21
I0
sg22
I0
sg23
I0
sg24
I0
sg17
I0
sg20
I0
sa(dp54
g3
I0
sg4
I0
sg10
I0
sg5
I0
sg7
I0
sg8
I1
sg11
I0
sg9
I0
sg6
I0
sg12
I0
sg13
I0
sg14
I0
sg24
I0
sg21
I0
sg2
I0
sg16
I0
sg18
I0
sg19
I0
sg15
I0
sg22
I0
sg23
I0
sg25
I0
sg17
I0
sg20
I0
sa(dp55
g3
I0
sg4
I0
sg5
I0
sg6
I1
sg7
I0
sg8
I0
sg9
I0
sg10
I0
sg11
I0
sg12
I0
sg13
I0
sg14
I0
sg15
I0
sg2
I0
sg16
I0
sg18
I0
sg19
I0
sg20
I0
sg21
I0
sg22
I0
sg23
I0
sg24
I0
sg17
I0
sg25
I0
sa(dp56
g3
I0
sg4
I0
sg10
I0
sg5
I0
sg7
I0
sg8
I0
sg11
I0
sg9
I0
sg6
I0
sg12
I0
sg13
I1
sg14
I0
sg25
I0
sg21
I0
sg2
I0
sg16
I0
sg18
I0
sg19
I0
sg15
I0
sg22
I0
sg23
I0
sg24
I0
sg17
I0
sg20
I0
sa(dp57
g3
I0
sg4
I0
sg5
I0
sg6
I0
sg7
I0
sg8
I1
sg9
I0
sg10
I0
sg11
I0
sg12
I0
sg13
I0
sg14
I0
sg24
I0
sg15
I0
sg2
I0
sg16
I0
sg18
I0
sg19
I0
sg21
I0
sg22
I0
sg23
I0
sg25
I0
sg17
I0
sg20
I0
sa(dp58
g3
I0
sg4
I0
sg10
I0
sg5
I0
sg7
I1
sg8
I0
sg11
I0
sg9
I0
sg6
I0
sg12
I0
sg13
I0
sg14
I0
sg21
I0
sg2
I0
sg16
I0
sg18
I0
sg19
I0
sg20
I0
sg15
I0
sg22
I0
sg23
I0
sg24
I0
sg17
I0
sg25
I0
sa(dp59
g3
I0
sg4
I0
sg5
I0
sg6
I0
sg7
I0
sg8
I0
sg9
I0
sg10
I0
sg11
I0
sg12
I0
sg13
I0
sg14
I0
sg25
I0
sg15
I0
sg2
I1
sg16
I0
sg18
I0
sg19
I0
sg21
I0
sg22
I0
sg23
I0
sg24
I0
sg17
I0
sg20
I0
sa(dp60
g3
I0
sg4
I0
sg10
I0
sg5
I0
sg7
I0
sg8
I0
sg11
I0
sg9
I1
sg6
I0
sg12
I0
sg13
I0
sg14
I0
sg24
I0
sg21
I0
sg2
I0
sg16
I0
sg18
I0
sg19
I0
sg15
I0
sg22
I0
sg23
I0
sg25
I0
sg17
I0
sg20
I0
sa(dp61
g3
I0
sg4
I0
sg5
I0
sg6
I0
sg7
I0
sg8
I0
sg9
I0
sg10
I0
sg11
I0
sg12
I1
sg13
I0
sg14
I0
sg15
I0
sg2
I0
sg16
I0
sg18
I0
sg19
I0
sg20
I0
sg21
I0
sg22
I0
sg23
I0
sg24
I0
sg17
I0
sg25
I0
sa(dp62
g3
I0
sg4
I0
sg10
I0
sg5
I0
sg7
I0
sg8
I0
sg11
I0
sg9
I0
sg6
I0
sg12
I0
sg13
I0
sg14
I1
sg25
I0
sg21
I0
sg2
I0
sg16
I0
sg18
I0
sg19
I0
sg15
I0
sg22
I0
sg23
I0
sg24
I0
sg17
I0
sg20
I0
sa(dp63
g3
I0
sg4
I0
sg5
I0
sg6
I0
sg7
I0
sg8
I0
sg9
I0
sg10
I0
sg11
I0
sg12
I0
sg13
I0
sg14
I0
sg24
I0
sg15
I0
sg2
I0
sg16
I0
sg18
I1
sg19
I0
sg21
I0
sg22
I0
sg23
I0
sg25
I0
sg17
I0
sg20
I0
sa(dp64
g3
I0
sg4
I0
sg10
I0
sg5
I0
sg7
I0
sg8
I0
sg11
I0
sg9
I0
sg6
I0
sg12
I0
sg13
I0
sg14
I0
sg21
I0
sg2
I0
sg16
I0
sg18
I1
sg19
I0
sg20
I0
sg15
I0
sg22
I0
sg23
I0
sg24
I0
sg17
I0
sg25
I0
sa(dp65
g3
I0
sg4
I0
sg5
I0
sg6
I0
sg7
I1
sg8
I0
sg9
I0
sg10
I0
sg11
I0
sg12
I0
sg13
I0
sg14
I0
sg25
I0
sg15
I0
sg2
I0
sg16
I0
sg18
I0
sg19
I0
sg21
I0
sg22
I0
sg23
I0
sg24
I0
sg17
I0
sg20
I0
sa(dp66
g3
I0
sg4
I0
sg10
I0
sg5
I0
sg7
I0
sg8
I0
sg11
I0
sg9
I0
sg6
I0
sg12
I0
sg13
I0
sg14
I0
sg24
I1
sg21
I0
sg2
I0
sg16
I0
sg18
I0
sg19
I0
sg15
I0
sg22
I0
sg23
I0
sg25
I0
sg17
I0
sg20
I0
sa(dp67
g3
I0
sg4
I0
sg5
I0
sg6
I0
sg7
I0
sg8
I1
sg9
I0
sg10
I0
sg11
I0
sg12
I0
sg13
I0
sg14
I0
sg15
I0
sg2
I0
sg16
I0
sg18
I0
sg19
I0
sg20
I0
sg21
I0
sg22
I0
sg23
I0
sg24
I0
sg17
I0
sg25
I0
sa(dp68
g3
I0
sg4
I0
sg10
I0
sg5
I0
sg7
I0
sg8
I0
sg11
I0
sg9
I0
sg6
I0
sg12
I1
sg13
I0
sg14
I0
sg25
I0
sg21
I0
sg2
I0
sg16
I0
sg18
I0
sg19
I0
sg15
I0
sg22
I0
sg23
I0
sg24
I0
sg17
I0
sg20
I0
sa(dp69
g3
I0
sg4
I0
sg5
I0
sg6
I0
sg7
I0
sg8
I0
sg9
I0
sg10
I0
sg11
I0
sg12
I0
sg13
I0
sg14
I1
sg24
I0
sg15
I0
sg2
I0
sg16
I0
sg18
I0
sg19
I0
sg21
I0
sg22
I0
sg23
I0
sg25
I0
sg17
I0
sg20
I0
sa(dp70
g3
I0
sg4
I0
sg10
I0
sg5
I0
sg7
I0
sg8
I0
sg11
I0
sg9
I0
sg6
I0
sg12
I0
sg13
I0
sg14
I0
sg21
I0
sg2
I0
sg16
I0
sg18
I0
sg19
I0
sg20
I0
sg15
I1
sg22
I0
sg23
I0
sg24
I0
sg17
I0
sg25
I0
sa(dp71
g3
I0
sg4
I0
sg5
I0
sg6
I0
sg7
I0
sg8
I1
sg9
I0
sg10
I0
sg11
I0
sg12
I0
sg13
I0
sg14
I0
sg25
I0
sg15
I0
sg2
I0
sg16
I0
sg18
I0
sg19
I0
sg21
I0
sg22
I0
sg23
I0
sg24
I0
sg17
I0
sg20
I0
sa(dp72
g3
I0
sg4
I0
sg10
I0
sg5
I0
sg7
I0
sg8
I1
sg11
I0
sg9
I0
sg6
I0
sg12
I0
sg13
I0
sg14
I0
sg24
I0
sg21
I0
sg2
I0
sg16
I0
sg18
I0
sg19
I0
sg15
I0
sg22
I0
sg23
I0
sg25
I0
sg17
I0
sg20
I0
sa(dp73
g3
I0
sg4
I0
sg5
I0
sg6
I0
sg7
I1
sg8
I0
sg9
I0
sg10
I0
sg11
I0
sg12
I0
sg13
I0
sg14
I0
sg15
I0
sg2
I0
sg16
I0
sg18
I0
sg19
I0
sg20
I0
sg21
I0
sg22
I0
sg23
I0
sg24
I0
sg17
I0
sg25
I0
sa(dp74
g3
I0
sg4
I0
sg10
I0
sg5
I0
sg7
I0
sg8
I1
sg11
I0
sg9
I0
sg6
I0
sg12
I0
sg13
I0
sg14
I0
sg25
I0
sg21
I0
sg2
I0
sg16
I0
sg18
I0
sg19
I0
sg15
I0
sg22
I0
sg23
I0
sg24
I0
sg17
I0
sg20
I0
sa(dp75
g3
I0
sg4
I0
sg5
I0
sg6
I0
sg7
I0
sg8
I1
sg9
I0
sg10
I0
sg11
I0
sg12
I0
sg13
I0
sg14
I0
sg24
I0
sg15
I0
sg2
I0
sg16
I0
sg18
I0
sg19
I0
sg21
I0
sg22
I0
sg23
I0
sg25
I0
sg17
I0
sg20
I0
sa(dp76
g3
I1
sg4
I0
sg10
I0
sg5
I0
sg7
I0
sg8
I0
sg11
I0
sg9
I0
sg6
I0
sg12
I0
sg13
I0
sg14
I0
sg21
I0
sg2
I0
sg16
I0
sg18
I0
sg19
I0
sg20
I0
sg15
I0
sg22
I0
sg23
I0
sg24
I0
sg17
I0
sg25
I0
sa(dp77
g3
I0
sg4
I0
sg5
I0
sg6
I1
sg7
I0
sg8
I0
sg9
I0
sg10
I0
sg11
I0
sg12
I0
sg13
I0
sg14
I0
sg25
I0
sg15
I0
sg2
I0
sg16
I0
sg18
I0
sg19
I0
sg21
I0
sg22
I0
sg23
I0
sg24
I0
sg17
I0
sg20
I0
sa(dp78
g3
I0
sg4
I0
sg10
I0
sg5
I0
sg7
I0
sg8
I0
sg11
I0
sg9
I0
sg6
I0
sg12
I0
sg13
I0
sg14
I0
sg24
I0
sg21
I0
sg2
I0
sg16
I0
sg18
I0
sg19
I0
sg15
I0
sg22
I0
sg23
I1
sg25
I0
sg17
I0
sg20
I0
sa(dp79
g3
I0
sg4
I0
sg5
I0
sg6
I0
sg7
I0
sg8
I1
sg9
I0
sg10
I0
sg11
I0
sg12
I0
sg13
I0
sg14
I0
sg15
I0
sg2
I0
sg16
I0
sg18
I0
sg19
I0
sg20
I0
sg21
I0
sg22
I0
sg23
I0
sg24
I0
sg17
I0
sg25
I0
sa(dp80
g3
I0
sg4
I0
sg10
I0
sg5
I0
sg7
I0
sg8
I1
sg11
I0
sg9
I0
sg6
I0
sg12
I0
sg13
I0
sg14
I0
sg25
I0
sg21
I0
sg2
I0
sg16
I0
sg18
I0
sg19
I0
sg15
I0
sg22
I0
sg23
I0
sg24
I0
sg17
I0
sg20
I0
sa(dp81
g3
I0
sg4
I0
sg5
I0
sg6
I0
sg7
I0
sg8
I0
sg9
I0
sg10
I0
sg11
I1
sg12
I0
sg13
I0
sg14
I0
sg24
I0
sg15
I0
sg2
I0
sg16
I0
sg18
I0
sg19
I0
sg21
I0
sg22
I0
sg23
I0
sg25
I0
sg17
I0
sg20
I0
sa(dp82
g3
I0
sg4
I0
sg10
I0
sg5
I0
sg7
I0
sg8
I1
sg11
I0
sg9
I0
sg6
I0
sg12
I0
sg13
I0
sg14
I0
sg21
I0
sg2
I0
sg16
I0
sg18
I0
sg19
I0
sg20
I0
sg15
I0
sg22
I0
sg23
I0
sg24
I0
sg17
I0
sg25
I0
sa(dp83
g3
I0
sg4
I0
sg5
I0
sg6
I0
sg7
I1
sg8
I0
sg9
I0
sg10
I0
sg11
I0
sg12
I0
sg13
I0
sg14
I0
sg25
I0
sg15
I0
sg2
I0
sg16
I0
sg18
I0
sg19
I0
sg21
I0
sg22
I0
sg23
I0
sg24
I0
sg17
I0
sg20
I0
sa(dp84
g3
I0
sg4
I1
sg10
I0
sg5
I0
sg7
I0
sg8
I0
sg11
I0
sg9
I0
sg6
I0
sg12
I0
sg13
I0
sg14
I0
sg24
I0
sg21
I0
sg2
I0
sg16
I0
sg18
I0
sg19
I0
sg15
I0
sg22
I0
sg23
I0
sg25
I0
sg17
I0
sg20
I0
sa(dp85
g3
I0
sg4
I0
sg5
I0
sg6
I0
sg7
I0
sg8
I0
sg9
I0
sg10
I0
sg11
I0
sg12
I0
sg13
I0
sg14
I1
sg15
I0
sg2
I0
sg16
I0
sg18
I0
sg19
I0
sg20
I0
sg21
I0
sg22
I0
sg23
I0
sg24
I0
sg17
I0
sg25
I0
sa(dp86
g3
I1
sg4
I0
sg10
I0
sg5
I0
sg7
I0
sg8
I0
sg11
I0
sg9
I0
sg6
I0
sg12
I0
sg13
I0
sg14
I0
sg25
I0
sg21
I0
sg2
I0
sg16
I0
sg18
I0
sg19
I0
sg15
I0
sg22
I0
sg23
I0
sg24
I0
sg17
I0
sg20
I0
sa(dp87
g3
I0
sg4
I0
sg5
I0
sg6
I0
sg7
I0
sg8
I0
sg9
I0
sg10
I0
sg11
I0
sg12
I0
sg13
I0
sg14
I0
sg24
I0
sg15
I1
sg2
I0
sg16
I0
sg18
I0
sg19
I0
sg21
I0
sg22
I0
sg23
I0
sg25
I0
sg17
I0
sg20
I0
sa(dp88
g3
I0
sg4
I0
sg10
I0
sg5
I0
sg7
I0
sg8
I0
sg11
I1
sg9
I0
sg6
I0
sg12
I0
sg13
I0
sg14
I0
sg21
I0
sg2
I0
sg16
I0
sg18
I0
sg19
I0
sg20
I0
sg15
I0
sg22
I0
sg23
I0
sg24
I0
sg17
I0
sg25
I0
sa(dp89
g3
I0
sg4
I0
sg5
I0
sg6
I0
sg7
I0
sg8
I1
sg9
I0
sg10
I0
sg11
I0
sg12
I0
sg13
I0
sg14
I0
sg25
I0
sg15
I0
sg2
I0
sg16
I0
sg18
I0
sg19
I0
sg21
I0
sg22
I0
sg23
I0
sg24
I0
sg17
I0
sg20
I0
sa(dp90
g3
I0
sg4
I0
sg10
I0
sg5
I0
sg7
I1
sg8
I0
sg11
I0
sg9
I0
sg6
I0
sg12
I0
sg13
I0
sg14
I0
sg24
I0
sg21
I0
sg2
I0
sg16
I0
sg18
I0
sg19
I0
sg15
I0
sg22
I0
sg23
I0
sg25
I0
sg17
I0
sg20
I0
sa(dp91
g3
I0
sg4
I0
sg5
I0
sg6
I0
sg7
I0
sg8
I0
sg9
I0
sg10
I0
sg11
I0
sg12
I0
sg13
I0
sg14
I0
sg15
I1
sg2
I0
sg16
I0
sg18
I0
sg19
I0
sg20
I0
sg21
I0
sg22
I0
sg23
I0
sg24
I0
sg17
I0
sg25
I0
sa(dp92
g3
I0
sg4
I0
sg10
I0
sg5
I0
sg7
I0
sg8
I0
sg11
I0
sg9
I0
sg6
I0
sg12
I0
sg13
I0
sg14
I0
sg25
I0
sg21
I0
sg2
I0
sg16
I0
sg18
I0
sg19
I0
sg15
I0
sg22
I0
sg23
I0
sg24
I1
sg17
I0
sg20
I0
sa(dp93
g3
I0
sg4
I0
sg5
I0
sg6
I0
sg7
I1
sg8
I0
sg9
I0
sg10
I0
sg11
I0
sg12
I0
sg13
I0
sg14
I0
sg24
I0
sg15
I0
sg2
I0
sg16
I0
sg18
I0
sg19
I0
sg21
I0
sg22
I0
sg23
I0
sg25
I0
sg17
I0
sg20
I0
sa(dp94
g3
I0
sg4
I0
sg10
I0
sg5
I0
sg7
I0
sg8
I1
sg11
I0
sg9
I0
sg6
I0
sg12
I0
sg13
I0
sg14
I0
sg21
I0
sg2
I0
sg16
I0
sg18
I0
sg19
I0
sg20
I0
sg15
I0
sg22
I0
sg23
I0
sg24
I0
sg17
I0
sg25
I0
sa(dp95
g3
I0
sg4
I0
sg5
I0
sg6
I0
sg7
I0
sg8
I0
sg9
I0
sg10
I0
sg11
I0
sg12
I1
sg13
I0
sg14
I0
sg25
I0
sg15
I0
sg2
I0
sg16
I0
sg18
I0
sg19
I0
sg21
I0
sg22
I0
sg23
I0
sg24
I0
sg17
I0
sg20
I0
sa(dp96
g3
I0
sg4
I0
sg10
I0
sg5
I0
sg7
I0
sg8
I0
sg11
I0
sg9
I0
sg6
I0
sg12
I1
sg13
I0
sg14
I0
sg24
I0
sg21
I0
sg2
I0
sg16
I0
sg18
I0
sg19
I0
sg15
I0
sg22
I0
sg23
I0
sg25
I0
sg17
I0
sg20
I0
sa(dp97
g3
I0
sg4
I0
sg5
I0
sg6
I0
sg7
I0
sg8
I1
sg9
I0
sg10
I0
sg11
I0
sg12
I0
sg13
I0
sg14
I0
sg15
I0
sg2
I0
sg16
I0
sg18
I0
sg19
I0
sg20
I0
sg21
I0
sg22
I0
sg23
I0
sg24
I0
sg17
I0
sg25
I0
sa(dp98
g3
I0
sg4
I0
sg10
I0
sg5
I0
sg7
I0
sg8
I1
sg11
I0
sg9
I0
sg6
I0
sg12
I0
sg13
I0
sg14
I0
sg25
I0
sg21
I0
sg2
I0
sg16
I0
sg18
I0
sg19
I0
sg15
I0
sg22
I0
sg23
I0
sg24
I0
sg17
I0
sg20
I0
sa(dp99
g3
I0
sg4
I0
sg5
I0
sg6
I0
sg7
I1
sg8
I0
sg9
I0
sg10
I0
sg11
I0
sg12
I0
sg13
I0
sg14
I0
sg24
I0
sg15
I0
sg2
I0
sg16
I0
sg18
I0
sg19
I0
sg21
I0
sg22
I0
sg23
I0
sg25
I0
sg17
I0
sg20
I0
sa(dp100
g3
I0
sg4
I0
sg10
I0
sg5
I0
sg7
I0
sg8
I0
sg11
I0
sg9
I0
sg6
I0
sg12
I1
sg13
I0
sg14
I0
sg21
I0
sg2
I0
sg16
I0
sg18
I0
sg19
I0
sg20
I0
sg15
I0
sg22
I0
sg23
I0
sg24
I0
sg17
I0
sg25
I0
sa(dp101
g3
I0
sg4
I0
sg5
I0
sg6
I0
sg7
I0
sg8
I0
sg9
I0
sg10
I0
sg11
I0
sg12
I0
sg13
I0
sg14
I0
sg25
I0
sg15
I0
sg2
I0
sg16
I0
sg18
I0
sg19
I0
sg21
I0
sg22
I0
sg23
I1
sg24
I0
sg17
I0
sg20
I0
sa(dp102
g3
I0
sg4
I0
sg10
I0
sg5
I0
sg7
I0
sg8
I0
sg11
I0
sg9
I0
sg6
I0
sg12
I0
sg13
I0
sg14
I0
sg24
I0
sg21
I0
sg2
I1
sg16
I0
sg18
I0
sg19
I0
sg15
I0
sg22
I0
sg23
I0
sg25
I0
sg17
I0
sg20
I0
sa(dp103
g3
I0
sg4
I0
sg5
I0
sg6
I0
sg7
I0
sg8
I1
sg9
I0
sg10
I0
sg11
I0
sg12
I0
sg13
I0
sg14
I0
sg15
I0
sg2
I0
sg16
I0
sg18
I0
sg19
I0
sg20
I0
sg21
I0
sg22
I0
sg23
I0
sg24
I0
sg17
I0
sg25
I0
sa(dp104
g3
I0
sg4
I0
sg10
I0
sg5
I0
sg7
I0
sg8
I0
sg11
I0
sg9
I0
sg6
I0
sg12
I1
sg13
I0
sg14
I0
sg25
I0
sg21
I0
sg2
I0
sg16
I0
sg18
I0
sg19
I0
sg15
I0
sg22
I0
sg23
I0
sg24
I0
sg17
I0
sg20
I0
sa(dp105
g3
I0
sg4
I0
sg5
I0
sg6
I0
sg7
I0
sg8
I1
sg9
I0
sg10
I0
sg11
I0
sg12
I0
sg13
I0
sg14
I0
sg24
I0
sg15
I0
sg2
I0
sg16
I0
sg18
I0
sg19
I0
sg21
I0
sg22
I0
sg23
I0
sg25
I0
sg17
I0
sg20
I0
sa(dp106
g3
I0
sg4
I0
sg10
I0
sg5
I0
sg7
I0
sg8
I0
sg11
I0
sg9
I0
sg6
I0
sg12
I1
sg13
I0
sg14
I0
sg21
I0
sg2
I0
sg16
I0
sg18
I0
sg19
I0
sg20
I0
sg15
I0
sg22
I0
sg23
I0
sg24
I0
sg17
I0
sg25
I0
sa(dp107
g3
I0
sg4
I0
sg5
I0
sg6
I0
sg7
I1
sg8
I0
sg9
I0
sg10
I0
sg11
I0
sg12
I0
sg13
I0
sg14
I0
sg25
I0
sg15
I0
sg2
I0
sg16
I0
sg18
I0
sg19
I0
sg21
I0
sg22
I0
sg23
I0
sg24
I0
sg17
I0
sg20
I0
sa(dp108
g3
I0
sg4
I0
sg10
I0
sg5
I0
sg7
I0
sg8
I0
sg11
I0
sg9
I0
sg6
I1
sg12
I0
sg13
I0
sg14
I0
sg24
I0
sg21
I0
sg2
I0
sg16
I0
sg18
I0
sg19
I0
sg15
I0
sg22
I0
sg23
I0
sg25
I0
sg17
I0
sg20
I0
sa(dp109
g3
I0
sg4
I0
sg5
I0
sg6
I0
sg7
I0
sg8
I1
sg9
I0
sg10
I0
sg11
I0
sg12
I0
sg13
I0
sg14
I0
sg15
I0
sg2
I0
sg16
I0
sg18
I0
sg19
I0
sg20
I0
sg21
I0
sg22
I0
sg23
I0
sg24
I0
sg17
I0
sg25
I0
sa(dp110
g3
I0
sg4
I0
sg10
I0
sg5
I0
sg7
I0
sg8
I0
sg11
I0
sg9
I0
sg6
I0
sg12
I1
sg13
I0
sg14
I0
sg25
I0
sg21
I0
sg2
I0
sg16
I0
sg18
I0
sg19
I0
sg15
I0
sg22
I0
sg23
I0
sg24
I0
sg17
I0
sg20
I0
sa(dp111
g3
I0
sg4
I0
sg5
I0
sg6
I0
sg7
I1
sg8
I0
sg9
I0
sg10
I0
sg11
I0
sg12
I0
sg13
I0
sg14
I0
sg24
I0
sg15
I0
sg2
I0
sg16
I0
sg18
I0
sg19
I0
sg21
I0
sg22
I0
sg23
I0
sg25
I0
sg17
I0
sg20
I0
sa(dp112
g3
I0
sg4
I0
sg10
I0
sg5
I0
sg7
I0
sg8
I0
sg11
I0
sg9
I0
sg6
I0
sg12
I0
sg13
I0
sg14
I0
sg21
I0
sg2
I0
sg16
I0
sg18
I0
sg19
I0
sg20
I0
sg15
I1
sg22
I0
sg23
I0
sg24
I0
sg17
I0
sg25
I0
sa(dp113
g3
I0
sg4
I0
sg5
I0
sg6
I0
sg7
I0
sg8
I1
sg9
I0
sg10
I0
sg11
I0
sg12
I0
sg13
I0
sg14
I0
sg25
I0
sg15
I0
sg2
I0
sg16
I0
sg18
I0
sg19
I0
sg21
I0
sg22
I0
sg23
I0
sg24
I0
sg17
I0
sg20
I0
sa(dp114
g3
I0
sg4
I0
sg10
I0
sg5
I0
sg7
I0
sg8
I0
sg11
I0
sg9
I0
sg6
I0
sg12
I0
sg13
I0
sg14
I0
sg24
I0
sg21
I0
sg2
I0
sg16
I0
sg18
I0
sg19
I0
sg15
I1
sg22
I0
sg23
I0
sg25
I0
sg17
I0
sg20
I0
sa(dp115
g3
I0
sg4
I0
sg5
I0
sg6
I0
sg7
I1
sg8
I0
sg9
I0
sg10
I0
sg11
I0
sg12
I0
sg13
I0
sg14
I0
sg15
I0
sg2
I0
sg16
I0
sg18
I0
sg19
I0
sg20
I0
sg21
I0
sg22
I0
sg23
I0
sg24
I0
sg17
I0
sg25
I0
sa(dp116
g3
I0
sg4
I0
sg10
I0
sg5
I0
sg7
I0
sg8
I0
sg11
I0
sg9
I0
sg6
I0
sg12
I0
sg13
I0
sg14
I0
sg25
I0
sg21
I0
sg2
I0
sg16
I0
sg18
I0
sg19
I0
sg15
I0
sg22
I0
sg23
I0
sg24
I1
sg17
I0
sg20
I0
sa(dp117
g3
I0
sg4
I0
sg5
I0
sg6
I0
sg7
I0
sg8
I0
sg9
I1
sg10
I0
sg11
I0
sg12
I0
sg13
I0
sg14
I0
sg24
I0
sg15
I0
sg2
I0
sg16
I0
sg18
I0
sg19
I0
sg21
I0
sg22
I0
sg23
I0
sg25
I0
sg17
I0
sg20
I0
sa(dp118
g3
I0
sg4
I0
sg10
I0
sg5
I0
sg7
I0
sg8
I1
sg11
I0
sg9
I0
sg6
I0
sg12
I0
sg13
I0
sg14
I0
sg21
I0
sg2
I0
sg16
I0
sg18
I0
sg19
I0
sg20
I0
sg15
I0
sg22
I0
sg23
I0
sg24
I0
sg17
I0
sg25
I0
sa(dp119
g3
I0
sg4
I0
sg5
I0
sg6
I0
sg7
I0
sg8
I0
sg9
I0
sg10
I0
sg11
I0
sg12
I1
sg13
I0
sg14
I0
sg25
I0
sg15
I0
sg2
I0
sg16
I0
sg18
I0
sg19
I0
sg21
I0
sg22
I0
sg23
I0
sg24
I0
sg17
I0
sg20
I0
sa(dp120
g3
I0
sg4
I0
sg10
I0
sg5
I0
sg7
I0
sg8
I0
sg11
I1
sg9
I0
sg6
I0
sg12
I0
sg13
I0
sg14
I0
sg24
I0
sg21
I0
sg2
I0
sg16
I0
sg18
I0
sg19
I0
sg15
I0
sg22
I0
sg23
I0
sg25
I0
sg17
I0
sg20
I0
sa(dp121
g3
I0
sg4
I1
sg5
I0
sg6
I0
sg7
I0
sg8
I0
sg9
I0
sg10
I0
sg11
I0
sg12
I0
sg13
I0
sg14
I0
sg15
I0
sg2
I0
sg16
I0
sg18
I0
sg19
I0
sg20
I0
sg21
I0
sg22
I0
sg23
I0
sg24
I0
sg17
I0
sg25
I0
sa(dp122
g3
I0
sg4
I0
sg10
I0
sg5
I0
sg7
I0
sg8
I0
sg11
I0
sg9
I0
sg6
I0
sg12
I1
sg13
I0
sg14
I0
sg25
I0
sg21
I0
sg2
I0
sg16
I0
sg18
I0
sg19
I0
sg15
I0
sg22
I0
sg23
I0
sg24
I0
sg17
I0
sg20
I0
sa(dp123
g3
I0
sg4
I0
sg5
I0
sg6
I0
sg7
I0
sg8
I0
sg9
I0
sg10
I0
sg11
I0
sg12
I0
sg13
I0
sg14
I0
sg24
I0
sg15
I0
sg2
I0
sg16
I0
sg18
I0
sg19
I0
sg21
I0
sg22
I0
sg23
I1
sg25
I0
sg17
I0
sg20
I0
sa(dp124
g3
I0
sg4
I0
sg10
I0
sg5
I0
sg7
I0
sg8
I0
sg11
I0
sg9
I0
sg6
I0
sg12
I0
sg13
I0
sg14
I0
sg21
I0
sg2
I0
sg16
I0
sg18
I0
sg19
I0
sg20
I0
sg15
I0
sg22
I0
sg23
I0
sg24
I1
sg17
I0
sg25
I0
sa(dp125
g3
I0
sg4
I0
sg5
I0
sg6
I0
sg7
I1
sg8
I0
sg9
I0
sg10
I0
sg11
I0
sg12
I0
sg13
I0
sg14
I0
sg25
I0
sg15
I0
sg2
I0
sg16
I0
sg18
I0
sg19
I0
sg21
I0
sg22
I0
sg23
I0
sg24
I0
sg17
I0
sg20
I0
sa(dp126
g3
I1
sg4
I0
sg10
I0
sg5
I0
sg7
I0
sg8
I0
sg11
I0
sg9
I0
sg6
I0
sg12
I0
sg13
I0
sg14
I0
sg24
I0
sg21
I0
sg2
I0
sg16
I0
sg18
I0
sg19
I0
sg15
I0
sg22
I0
sg23
I0
sg25
I0
sg17
I0
sg20
I0
sa(dp127
g3
I0
sg4
I0
sg5
I0
sg6
I0
sg7
I0
sg8
I0
sg9
I0
sg10
I0
sg11
I0
sg12
I0
sg13
I0
sg14
I0
sg15
I0
sg2
I0
sg16
I0
sg18
I0
sg19
I1
sg20
I0
sg21
I0
sg22
I0
sg23
I0
sg24
I0
sg17
I0
sg25
I0
sa(dp128
g3
I0
sg4
I0
sg10
I0
sg5
I0
sg7
I0
sg8
I0
sg11
I0
sg9
I0
sg6
I0
sg12
I0
sg13
I0
sg14
I0
sg25
I0
sg21
I0
sg2
I0
sg16
I0
sg18
I1
sg19
I0
sg15
I0
sg22
I0
sg23
I0
sg24
I0
sg17
I0
sg20
I0
sa(dp129
g3
I0
sg4
I0
sg5
I0
sg6
I0
sg7
I0
sg8
I1
sg9
I0
sg10
I0
sg11
I0
sg12
I0
sg13
I0
sg14
I0
sg24
I0
sg15
I0
sg2
I0
sg16
I0
sg18
I0
sg19
I0
sg21
I0
sg22
I0
sg23
I0
sg25
I0
sg17
I0
sg20
I0
sa(dp130
g3
I0
sg4
I0
sg10
I0
sg5
I0
sg7
I0
sg8
I0
sg11
I0
sg9
I0
sg6
I0
sg12
I0
sg13
I0
sg14
I0
sg21
I0
sg2
I0
sg16
I0
sg18
I0
sg19
I0
sg20
I0
sg15
I0
sg22
I0
sg23
I0
sg24
I1
sg17
I0
sg25
I0
sa(dp131
g3
I0
sg4
I0
sg5
I0
sg6
I0
sg7
I1
sg8
I0
sg9
I0
sg10
I0
sg11
I0
sg12
I0
sg13
I0
sg14
I0
sg25
I0
sg15
I0
sg2
I0
sg16
I0
sg18
I0
sg19
I0
sg21
I0
sg22
I0
sg23
I0
sg24
I0
sg17
I0
sg20
I0
sa(dp132
g3
I0
sg4
I0
sg10
I0
sg5
I0
sg7
I0
sg8
I1
sg11
I0
sg9
I0
sg6
I0
sg12
I0
sg13
I0
sg14
I0
sg24
I0
sg21
I0
sg2
I0
sg16
I0
sg18
I0
sg19
I0
sg15
I0
sg22
I0
sg23
I0
sg25
I0
sg17
I0
sg20
I0
sa(dp133
g3
I0
sg4
I0
sg5
I0
sg6
I0
sg7
I0
sg8
I1
sg9
I0
sg10
I0
sg11
I0
sg12
I0
sg13
I0
sg14
I0
sg15
I0
sg2
I0
sg16
I0
sg18
I0
sg19
I0
sg20
I0
sg21
I0
sg22
I0
sg23
I0
sg24
I0
sg17
I0
sg25
I0
sa(dp134
g3
I0
sg4
I0
sg10
I0
sg5
I0
sg7
I0
sg8
I0
sg11
I0
sg9
I0
sg6
I0
sg12
I1
sg13
I0
sg14
I0
sg25
I0
sg21
I0
sg2
I0
sg16
I0
sg18
I0
sg19
I0
sg15
I0
sg22
I0
sg23
I0
sg24
I0
sg17
I0
sg20
I0
sa(dp135
g3
I0
sg4
I0
sg5
I0
sg6
I0
sg7
I1
sg8
I0
sg9
I0
sg10
I0
sg11
I0
sg12
I0
sg13
I0
sg14
I0
sg24
I0
sg15
I0
sg2
I0
sg16
I0
sg18
I0
sg19
I0
sg21
I0
sg22
I0
sg23
I0
sg25
I0
sg17
I0
sg20
I0
sa(dp136
g3
I0
sg4
I0
sg10
I0
sg5
I0
sg7
I0
sg8
I0
sg11
I0
sg9
I0
sg6
I0
sg12
I0
sg13
I0
sg14
I0
sg21
I0
sg2
I0
sg16
I0
sg18
I0
sg19
I0
sg20
I0
sg15
I0
sg22
I0
sg23
I0
sg24
I0
sg17
I0
sg25
I1
sa(dp137
g3
I0
sg4
I0
sg5
I0
sg6
I0
sg7
I0
sg8
I0
sg9
I0
sg10
I0
sg11
I0
sg12
I0
sg13
I0
sg14
I0
sg25
I0
sg15
I1
sg2
I0
sg16
I0
sg18
I0
sg19
I0
sg21
I0
sg22
I0
sg23
I0
sg24
I0
sg17
I0
sg20
I0
sa(dp138
g3
I0
sg4
I0
sg10
I0
sg5
I0
sg7
I0
sg8
I0
sg11
I0
sg9
I0
sg6
I0
sg12
I0
sg13
I0
sg14
I0
sg24
I0
sg21
I0
sg2
I0
sg16
I1
sg18
I0
sg19
I0
sg15
I0
sg22
I0
sg23
I0
sg25
I0
sg17
I0
sg20
I0
sa(dp139
g3
I0
sg4
I0
sg5
I0
sg6
I0
sg7
I0
sg8
I0
sg9
I1
sg10
I0
sg11
I0
sg12
I0
sg13
I0
sg14
I0
sg15
I0
sg2
I0
sg16
I0
sg18
I0
sg19
I0
sg20
I0
sg21
I0
sg22
I0
sg23
I0
sg24
I0
sg17
I0
sg25
I0
sa(dp140
g3
I0
sg4
I1
sg10
I0
sg5
I0
sg7
I0
sg8
I0
sg11
I0
sg9
I0
sg6
I0
sg12
I0
sg13
I0
sg14
I0
sg25
I0
sg21
I0
sg2
I0
sg16
I0
sg18
I0
sg19
I0
sg15
I0
sg22
I0
sg23
I0
sg24
I0
sg17
I0
sg20
I0
sa(dp141
g3
I0
sg4
I0
sg5
I0
sg6
I0
sg7
I0
sg8
I0
sg9
I0
sg10
I0
sg11
I0
sg12
I1
sg13
I0
sg14
I0
sg24
I0
sg15
I0
sg2
I0
sg16
I0
sg18
I0
sg19
I0
sg21
I0
sg22
I0
sg23
I0
sg25
I0
sg17
I0
sg20
I0
sa(dp142
g3
I0
sg4
I0
sg10
I0
sg5
I0
sg7
I0
sg8
I1
sg11
I0
sg9
I0
sg6
I0
sg12
I0
sg13
I0
sg14
I0
sg21
I0
sg2
I0
sg16
I0
sg18
I0
sg19
I0
sg20
I0
sg15
I0
sg22
I0
sg23
I0
sg24
I0
sg17
I0
sg25
I0
sa(dp143
g3
I0
sg4
I0
sg5
I0
sg6
I0
sg7
I0
sg8
I1
sg9
I0
sg10
I0
sg11
I0
sg12
I0
sg13
I0
sg14
I0
sg25
I0
sg15
I0
sg2
I0
sg16
I0
sg18
I0
sg19
I0
sg21
I0
sg22
I0
sg23
I0
sg24
I0
sg17
I0
sg20
I0
sa(dp144
g3
I0
sg4
I0
sg10
I0
sg5
I0
sg7
I0
sg8
I0
sg11
I0
sg9
I0
sg6
I0
sg12
I0
sg13
I0
sg14
I0
sg24
I0
sg21
I0
sg2
I0
sg16
I0
sg18
I0
sg19
I0
sg15
I1
sg22
I0
sg23
I0
sg25
I0
sg17
I0
sg20
I0
sa(dp145
g3
I0
sg4
I0
sg5
I0
sg6
I0
sg7
I1
sg8
I0
sg9
I0
sg10
I0
sg11
I0
sg12
I0
sg13
I0
sg14
I0
sg15
I0
sg2
I0
sg16
I0
sg18
I0
sg19
I0
sg20
I0
sg21
I0
sg22
I0
sg23
I0
sg24
I0
sg17
I0
sg25
I0
sa(dp146
g3
I0
sg4
I0
sg10
I0
sg5
I0
sg7
I0
sg8
I0
sg11
I0
sg9
I1
sg6
I0
sg12
I0
sg13
I0
sg14
I0
sg25
I0
sg21
I0
sg2
I0
sg16
I0
sg18
I0
sg19
I0
sg15
I0
sg22
I0
sg23
I0
sg24
I0
sg17
I0
sg20
I0
sa(dp147
g3
I0
sg4
I0
sg5
I0
sg6
I0
sg7
I0
sg8
I1
sg9
I0
sg10
I0
sg11
I0
sg12
I0
sg13
I0
sg14
I0
sg24
I0
sg15
I0
sg2
I0
sg16
I0
sg18
I0
sg19
I0
sg21
I0
sg22
I0
sg23
I0
sg25
I0
sg17
I0
sg20
I0
sa(dp148
g3
I0
sg4
I0
sg10
I0
sg5
I0
sg7
I0
sg8
I1
sg11
I0
sg9
I0
sg6
I0
sg12
I0
sg13
I0
sg14
I0
sg21
I0
sg2
I0
sg16
I0
sg18
I0
sg19
I0
sg20
I0
sg15
I0
sg22
I0
sg23
I0
sg24
I0
sg17
I0
sg25
I0
sa(dp149
g3
I0
sg4
I0
sg5
I0
sg6
I1
sg7
I0
sg8
I0
sg9
I0
sg10
I0
sg11
I0
sg12
I0
sg13
I0
sg14
I0
sg25
I0
sg15
I0
sg2
I0
sg16
I0
sg18
I0
sg19
I0
sg21
I0
sg22
I0
sg23
I0
sg24
I0
sg17
I0
sg20
I0
sa(dp150
g3
I0
sg4
I0
sg10
I0
sg5
I0
sg7
I0
sg8
I1
sg11
I0
sg9
I0
sg6
I0
sg12
I0
sg13
I0
sg14
I0
sg24
I0
sg21
I0
sg2
I0
sg16
I0
sg18
I0
sg19
I0
sg15
I0
sg22
I0
sg23
I0
sg25
I0
sg17
I0
sg20
I0
sa(dp151
g3
I0
sg4
I0
sg5
I0
sg6
I0
sg7
I0
sg8
I1
sg9
I0
sg10
I0
sg11
I0
sg12
I0
sg13
I0
sg14
I0
sg15
I0
sg2
I0
sg16
I0
sg18
I0
sg19
I0
sg20
I0
sg21
I0
sg22
I0
sg23
I0
sg24
I0
sg17
I0
sg25
I0
sa(dp152
g3
I0
sg4
I0
sg10
I0
sg5
I0
sg7
I0
sg8
I1
sg11
I0
sg9
I0
sg6
I0
sg12
I0
sg13
I0
sg14
I0
sg25
I0
sg21
I0
sg2
I0
sg16
I0
sg18
I0
sg19
I0
sg15
I0
sg22
I0
sg23
I0
sg24
I0
sg17
I0
sg20
I0
sa(dp153
g3
I0
sg4
I1
sg5
I0
sg6
I0
sg7
I0
sg8
I0
sg9
I0
sg10
I0
sg11
I0
sg12
I0
sg13
I0
sg14
I0
sg24
I0
sg15
I0
sg2
I0
sg16
I0
sg18
I0
sg19
I0
sg21
I0
sg22
I0
sg23
I0
sg25
I0
sg17
I0
sg20
I0
sa(dp154
g3
I0
sg4
I0
sg10
I0
sg5
I0
sg7
I0
sg8
I0
sg11
I0
sg9
I0
sg6
I0
sg12
I0
sg13
I0
sg14
I0
sg21
I0
sg2
I0
sg16
I0
sg18
I0
sg19
I0
sg20
I0
sg15
I1
sg22
I0
sg23
I0
sg24
I0
sg17
I0
sg25
I0
sa(dp155
g3
I0
sg4
I0
sg5
I0
sg6
I0
sg7
I0
sg8
I0
sg9
I0
sg10
I0
sg11
I0
sg12
I1
sg13
I0
sg14
I0
sg25
I0
sg15
I0
sg2
I0
sg16
I0
sg18
I0
sg19
I0
sg21
I0
sg22
I0
sg23
I0
sg24
I0
sg17
I0
sg20
I0
sa(dp156
g3
I0
sg4
I0
sg10
I0
sg5
I0
sg7
I0
sg8
I1
sg11
I0
sg9
I0
sg6
I0
sg12
I0
sg13
I0
sg14
I0
sg24
I0
sg21
I0
sg2
I0
sg16
I0
sg18
I0
sg19
I0
sg15
I0
sg22
I0
sg23
I0
sg25
I0
sg17
I0
sg20
I0
sa(dp157
g3
I0
sg4
I1
sg5
I0
sg6
I0
sg7
I0
sg8
I0
sg9
I0
sg10
I0
sg11
I0
sg12
I0
sg13
I0
sg14
I0
sg15
I0
sg2
I0
sg16
I0
sg18
I0
sg19
I0
sg20
I0
sg21
I0
sg22
I0
sg23
I0
sg24
I0
sg17
I0
sg25
I0
sa(dp158
g3
I0
sg4
I0
sg10
I0
sg5
I0
sg7
I0
sg8
I1
sg11
I0
sg9
I0
sg6
I0
sg12
I0
sg13
I0
sg14
I0
sg25
I0
sg21
I0
sg2
I0
sg16
I0
sg18
I0
sg19
I0
sg15
I0
sg22
I0
sg23
I0
sg24
I0
sg17
I0
sg20
I0
sa(dp159
g3
I0
sg4
I0
sg5
I0
sg6
I0
sg7
I0
sg8
I1
sg9
I0
sg10
I0
sg11
I0
sg12
I0
sg13
I0
sg14
I0
sg24
I0
sg15
I0
sg2
I0
sg16
I0
sg18
I0
sg19
I0
sg21
I0
sg22
I0
sg23
I0
sg25
I0
sg17
I0
sg20
I0
sa(dp160
g3
I0
sg4
I0
sg10
I1
sg5
I0
sg7
I0
sg8
I0
sg11
I0
sg9
I0
sg6
I0
sg12
I0
sg13
I0
sg14
I0
sg21
I0
sg2
I0
sg16
I0
sg18
I0
sg19
I0
sg20
I0
sg15
I0
sg22
I0
sg23
I0
sg24
I0
sg17
I0
sg25
I0
sa(dp161
g3
I0
sg4
I0
sg5
I0
sg6
I0
sg7
I0
sg8
I0
sg9
I0
sg10
I0
sg11
I0
sg12
I0
sg13
I0
sg14
I0
sg25
I0
sg15
I0
sg2
I0
sg16
I0
sg18
I1
sg19
I0
sg21
I0
sg22
I0
sg23
I0
sg24
I0
sg17
I0
sg20
I0
sa(dp162
g3
I0
sg4
I0
sg10
I0
sg5
I0
sg7
I1
sg8
I0
sg11
I0
sg9
I0
sg6
I0
sg12
I0
sg13
I0
sg14
I0
sg24
I0
sg21
I0
sg2
I0
sg16
I0
sg18
I0
sg19
I0
sg15
I0
sg22
I0
sg23
I0
sg25
I0
sg17
I0
sg20
I0
sa(dp163
g3
I0
sg4
I0
sg5
I0
sg6
I0
sg7
I0
sg8
I1
sg9
I0
sg10
I0
sg11
I0
sg12
I0
sg13
I0
sg14
I0
sg15
I0
sg2
I0
sg16
I0
sg18
I0
sg19
I0
sg20
I0
sg21
I0
sg22
I0
sg23
I0
sg24
I0
sg17
I0
sg25
I0
sa(dp164
g3
I0
sg4
I0
sg10
I0
sg5
I0
sg7
I1
sg8
I0
sg11
I0
sg9
I0
sg6
I0
sg12
I0
sg13
I0
sg14
I0
sg25
I0
sg21
I0
sg2
I0
sg16
I0
sg18
I0
sg19
I0
sg15
I0
sg22
I0
sg23
I0
sg24
I0
sg17
I0
sg20
I0
sa(dp165
g3
I0
sg4
I0
sg5
I0
sg6
I0
sg7
I0
sg8
I1
sg9
I0
sg10
I0
sg11
I0
sg12
I0
sg13
I0
sg14
I0
sg24
I0
sg15
I0
sg2
I0
sg16
I0
sg18
I0
sg19
I0
sg21
I0
sg22
I0
sg23
I0
sg25
I0
sg17
I0
sg20
I0
sa(dp166
g3
I0
sg4
I0
sg10
I0
sg5
I0
sg7
I0
sg8
I0
sg11
I0
sg9
I0
sg6
I0
sg12
I0
sg13
I0
sg14
I1
sg21
I0
sg2
I0
sg16
I0
sg18
I0
sg19
I0
sg20
I0
sg15
I0
sg22
I0
sg23
I0
sg24
I0
sg17
I0
sg25
I0
sa(dp167
g3
I0
sg4
I0
sg5
I0
sg6
I0
sg7
I1
sg8
I0
sg9
I0
sg10
I0
sg11
I0
sg12
I0
sg13
I0
sg14
I0
sg25
I0
sg15
I0
sg2
I0
sg16
I0
sg18
I0
sg19
I0
sg21
I0
sg22
I0
sg23
I0
sg24
I0
sg17
I0
sg20
I0
sa(dp168
g3
I0
sg4
I0
sg10
I0
sg5
I0
sg7
I0
sg8
I0
sg11
I0
sg9
I0
sg6
I0
sg12
I1
sg13
I0
sg14
I0
sg24
I0
sg21
I0
sg2
I0
sg16
I0
sg18
I0
sg19
I0
sg15
I0
sg22
I0
sg23
I0
sg25
I0
sg17
I0
sg20
I0
sa(dp169
g3
I0
sg4
I0
sg5
I0
sg6
I0
sg7
I0
sg8
I0
sg9
I0
sg10
I0
sg11
I0
sg12
I0
sg13
I0
sg14
I0
sg15
I1
sg2
I0
sg16
I0
sg18
I0
sg19
I0
sg20
I0
sg21
I0
sg22
I0
sg23
I0
sg24
I0
sg17
I0
sg25
I0
sa(dp170
g3
I0
sg4
I1
sg10
I0
sg5
I0
sg7
I0
sg8
I0
sg11
I0
sg9
I0
sg6
I0
sg12
I0
sg13
I0
sg14
I0
sg25
I0
sg21
I0
sg2
I0
sg16
I0
sg18
I0
sg19
I0
sg15
I0
sg22
I0
sg23
I0
sg24
I0
sg17
I0
sg20
I0
sa(dp171
g3
I0
sg4
I0
sg5
I0
sg6
I0
sg7
I0
sg8
I1
sg9
I0
sg10
I0
sg11
I0
sg12
I0
sg13
I0
sg14
I0
sg24
I0
sg15
I0
sg2
I0
sg16
I0
sg18
I0
sg19
I0
sg21
I0
sg22
I0
sg23
I0
sg25
I0
sg17
I0
sg20
I0
sa(dp172
g3
I0
sg4
I0
sg10
I0
sg5
I0
sg7
I0
sg8
I0
sg11
I0
sg9
I0
sg6
I0
sg12
I0
sg13
I0
sg14
I0
sg21
I0
sg2
I0
sg16
I0
sg18
I0
sg19
I0
sg20
I0
sg15
I0
sg22
I0
sg23
I0
sg24
I0
sg17
I1
sg25
I0
sa(dp173
g3
I0
sg4
I0
sg5
I0
sg6
I0
sg7
I0
sg8
I1
sg9
I0
sg10
I0
sg11
I0
sg12
I0
sg13
I0
sg14
I0
sg25
I0
sg15
I0
sg2
I0
sg16
I0
sg18
I0
sg19
I0
sg21
I0
sg22
I0
sg23
I0
sg24
I0
sg17
I0
sg20
I0
sa(dp174
g3
I0
sg4
I0
sg10
I0
sg5
I0
sg7
I0
sg8
I1
sg11
I0
sg9
I0
sg6
I0
sg12
I0
sg13
I0
sg14
I0
sg24
I0
sg21
I0
sg2
I0
sg16
I0
sg18
I0
sg19
I0
sg15
I0
sg22
I0
sg23
I0
sg25
I0
sg17
I0
sg20
I0
sa(dp175
g3
I0
sg4
I1
sg5
I0
sg6
I0
sg7
I0
sg8
I0
sg9
I0
sg10
I0
sg11
I0
sg12
I0
sg13
I0
sg14
I0
sg15
I0
sg2
I0
sg16
I0
sg18
I0
sg19
I0
sg20
I0
sg21
I0
sg22
I0
sg23
I0
sg24
I0
sg17
I0
sg25
I0
sa(dp176
g3
I0
sg4
I0
sg10
I0
sg5
I0
sg7
I0
sg8
I0
sg11
I0
sg9
I0
sg6
I0
sg12
I1
sg13
I0
sg14
I0
sg25
I0
sg21
I0
sg2
I0
sg16
I0
sg18
I0
sg19
I0
sg15
I0
sg22
I0
sg23
I0
sg24
I0
sg17
I0
sg20
I0
sa(dp177
g3
I0
sg4
I0
sg5
I0
sg6
I0
sg7
I0
sg8
I1
sg9
I0
sg10
I0
sg11
I0
sg12
I0
sg13
I0
sg14
I0
sg24
I0
sg15
I0
sg2
I0
sg16
I0
sg18
I0
sg19
I0
sg21
I0
sg22
I0
sg23
I0
sg25
I0
sg17
I0
sg20
I0
sa(dp178
g3
I0
sg4
I0
sg10
I0
sg5
I0
sg7
I1
sg8
I0
sg11
I0
sg9
I0
sg6
I0
sg12
I0
sg13
I0
sg14
I0
sg21
I0
sg2
I0
sg16
I0
sg18
I0
sg19
I0
sg20
I0
sg15
I0
sg22
I0
sg23
I0
sg24
I0
sg17
I0
sg25
I0
sa(dp179
g3
I0
sg4
I0
sg5
I0
sg6
I0
sg7
I0
sg8
I1
sg9
I0
sg10
I0
sg11
I0
sg12
I0
sg13
I0
sg14
I0
sg25
I0
sg15
I0
sg2
I0
sg16
I0
sg18
I0
sg19
I0
sg21
I0
sg22
I0
sg23
I0
sg24
I0
sg17
I0
sg20
I0
sa(dp180
g3
I0
sg4
I0
sg10
I0
sg5
I0
sg7
I0
sg8
I0
sg11
I0
sg9
I0
sg6
I0
sg12
I1
sg13
I0
sg14
I0
sg24
I0
sg21
I0
sg2
I0
sg16
I0
sg18
I0
sg19
I0
sg15
I0
sg22
I0
sg23
I0
sg25
I0
sg17
I0
sg20
I0
sa(dp181
g3
I0
sg4
I0
sg5
I0
sg6
I0
sg7
I0
sg8
I1
sg9
I0
sg10
I0
sg11
I0
sg12
I0
sg13
I0
sg14
I0
sg15
I0
sg2
I0
sg16
I0
sg18
I0
sg19
I0
sg20
I0
sg21
I0
sg22
I0
sg23
I0
sg24
I0
sg17
I0
sg25
I0
sa(dp182
g3
I0
sg4
I1
sg10
I0
sg5
I0
sg7
I0
sg8
I0
sg11
I0
sg9
I0
sg6
I0
sg12
I0
sg13
I0
sg14
I0
sg25
I0
sg21
I0
sg2
I0
sg16
I0
sg18
I0
sg19
I0
sg15
I0
sg22
I0
sg23
I0
sg24
I0
sg17
I0
sg20
I0
sa(dp183
g3
I0
sg4
I0
sg5
I0
sg6
I0
sg7
I0
sg8
I0
sg9
I0
sg10
I0
sg11
I0
sg12
I0
sg13
I0
sg14
I0
sg24
I0
sg15
I0
sg2
I0
sg16
I0
sg18
I0
sg19
I0
sg21
I1
sg22
I0
sg23
I0
sg25
I0
sg17
I0
sg20
I0
sa(dp184
g3
I0
sg4
I0
sg10
I0
sg5
I0
sg7
I0
sg8
I0
sg11
I1
sg9
I0
sg6
I0
sg12
I0
sg13
I0
sg14
I0
sg21
I0
sg2
I0
sg16
I0
sg18
I0
sg19
I0
sg20
I0
sg15
I0
sg22
I0
sg23
I0
sg24
I0
sg17
I0
sg25
I0
sa(dp185
g3
I0
sg4
I0
sg5
I0
sg6
I0
sg7
I0
sg8
I1
sg9
I0
sg10
I0
sg11
I0
sg12
I0
sg13
I0
sg14
I0
sg25
I0
sg15
I0
sg2
I0
sg16
I0
sg18
I0
sg19
I0
sg21
I0
sg22
I0
sg23
I0
sg24
I0
sg17
I0
sg20
I0
sa(dp186
g3
I0
sg4
I0
sg10
I0
sg5
I0
sg7
I1
sg8
I0
sg11
I0
sg9
I0
sg6
I0
sg12
I0
sg13
I0
sg14
I0
sg24
I0
sg21
I0
sg2
I0
sg16
I0
sg18
I0
sg19
I0
sg15
I0
sg22
I0
sg23
I0
sg25
I0
sg17
I0
sg20
I0
sa(dp187
g3
I0
sg4
I0
sg5
I0
sg6
I0
sg7
I0
sg8
I0
sg9
I0
sg10
I0
sg11
I0
sg12
I0
sg13
I0
sg14
I0
sg15
I0
sg2
I0
sg16
I0
sg18
I0
sg19
I1
sg20
I0
sg21
I0
sg22
I0
sg23
I0
sg24
I0
sg17
I0
sg25
I0
sa(dp188
g3
I0
sg4
I0
sg10
I0
sg5
I0
sg7
I0
sg8
I0
sg11
I0
sg9
I0
sg6
I0
sg12
I0
sg13
I0
sg14
I0
sg25
I0
sg21
I0
sg2
I0
sg16
I0
sg18
I0
sg19
I1
sg15
I0
sg22
I0
sg23
I0
sg24
I0
sg17
I0
sg20
I0
sa(dp189
g3
I0
sg4
I0
sg5
I0
sg6
I0
sg7
I0
sg8
I0
sg9
I0
sg10
I0
sg11
I0
sg12
I0
sg13
I0
sg14
I0
sg24
I0
sg15
I0
sg2
I0
sg16
I0
sg18
I0
sg19
I0
sg21
I0
sg22
I0
sg23
I0
sg25
I1
sg17
I0
sg20
I0
sa(dp190
g3
I0
sg4
I1
sg10
I0
sg5
I0
sg7
I0
sg8
I0
sg11
I0
sg9
I0
sg6
I0
sg12
I0
sg13
I0
sg14
I0
sg21
I0
sg2
I0
sg16
I0
sg18
I0
sg19
I0
sg20
I0
sg15
I0
sg22
I0
sg23
I0
sg24
I0
sg17
I0
sg25
I0
sa(dp191
g3
I0
sg4
I0
sg5
I0
sg6
I0
sg7
I0
sg8
I0
sg9
I0
sg10
I0
sg11
I0
sg12
I1
sg13
I0
sg14
I0
sg25
I0
sg15
I0
sg2
I0
sg16
I0
sg18
I0
sg19
I0
sg21
I0
sg22
I0
sg23
I0
sg24
I0
sg17
I0
sg20
I0
sa(dp192
g3
I0
sg4
I0
sg10
I0
sg5
I0
sg7
I0
sg8
I0
sg11
I0
sg9
I0
sg6
I0
sg12
I0
sg13
I0
sg14
I0
sg24
I1
sg21
I0
sg2
I0
sg16
I0
sg18
I0
sg19
I0
sg15
I0
sg22
I0
sg23
I0
sg25
I0
sg17
I0
sg20
I0
sa(dp193
g3
I0
sg4
I0
sg5
I0
sg6
I0
sg7
I1
sg8
I0
sg9
I0
sg10
I0
sg11
I0
sg12
I0
sg13
I0
sg14
I0
sg15
I0
sg2
I0
sg16
I0
sg18
I0
sg19
I0
sg20
I0
sg21
I0
sg22
I0
sg23
I0
sg24
I0
sg17
I0
sg25
I0
sa(dp194
g3
I0
sg4
I0
sg10
I0
sg5
I0
sg7
I0
sg8
I0
sg11
I0
sg9
I0
sg6
I0
sg12
I0
sg13
I0
sg14
I0
sg25
I0
sg21
I0
sg2
I0
sg16
I1
sg18
I0
sg19
I0
sg15
I0
sg22
I0
sg23
I0
sg24
I0
sg17
I0
sg20
I0
sa(dp195
g3
I0
sg4
I0
sg5
I0
sg6
I0
sg7
I0
sg8
I0
sg9
I0
sg10
I0
sg11
I0
sg12
I0
sg13
I0
sg14
I0
sg24
I0
sg15
I0
sg2
I1
sg16
I0
sg18
I0
sg19
I0
sg21
I0
sg22
I0
sg23
I0
sg25
I0
sg17
I0
sg20
I0
sa(dp196
g3
I0
sg4
I0
sg10
I0
sg5
I0
sg7
I0
sg8
I1
sg11
I0
sg9
I0
sg6
I0
sg12
I0
sg13
I0
sg14
I0
sg21
I0
sg2
I0
sg16
I0
sg18
I0
sg19
I0
sg20
I0
sg15
I0
sg22
I0
sg23
I0
sg24
I0
sg17
I0
sg25
I0
sa(dp197
g3
I0
sg4
I0
sg5
I0
sg6
I0
sg7
I0
sg8
I0
sg9
I0
sg10
I0
sg11
I0
sg12
I0
sg13
I0
sg14
I0
sg25
I0
sg15
I1
sg2
I0
sg16
I0
sg18
I0
sg19
I0
sg21
I0
sg22
I0
sg23
I0
sg24
I0
sg17
I0
sg20
I0
sa(dp198
g3
I0
sg4
I0
sg10
I0
sg5
I0
sg7
I1
sg8
I0
sg11
I0
sg9
I0
sg6
I0
sg12
I0
sg13
I0
sg14
I0
sg24
I0
sg21
I0
sg2
I0
sg16
I0
sg18
I0
sg19
I0
sg15
I0
sg22
I0
sg23
I0
sg25
I0
sg17
I0
sg20
I0
sa(dp199
g3
I0
sg4
I0
sg5
I0
sg6
I0
sg7
I0
sg8
I0
sg9
I0
sg10
I0
sg11
I0
sg12
I0
sg13
I0
sg14
I0
sg15
I0
sg2
I0
sg16
I1
sg18
I0
sg19
I0
sg20
I0
sg21
I0
sg22
I0
sg23
I0
sg24
I0
sg17
I0
sg25
I0
sa(dp200
g3
I0
sg4
I0
sg10
I0
sg5
I0
sg7
I0
sg8
I0
sg11
I0
sg9
I0
sg6
I0
sg12
I0
sg13
I0
sg14
I0
sg25
I0
sg21
I0
sg2
I1
sg16
I0
sg18
I0
sg19
I0
sg15
I0
sg22
I0
sg23
I0
sg24
I0
sg17
I0
sg20
I0
sa(dp201
g3
I0
sg4
I0
sg5
I0
sg6
I0
sg7
I0
sg8
I1
sg9
I0
sg10
I0
sg11
I0
sg12
I0
sg13
I0
sg14
I0
sg24
I0
sg15
I0
sg2
I0
sg16
I0
sg18
I0
sg19
I0
sg21
I0
sg22
I0
sg23
I0
sg25
I0
sg17
I0
sg20
I0
sa(dp202
g3
I0
sg4
I0
sg10
I0
sg5
I0
sg7
I1
sg8
I0
sg11
I0
sg9
I0
sg6
I0
sg12
I0
sg13
I0
sg14
I0
sg21
I0
sg2
I0
sg16
I0
sg18
I0
sg19
I0
sg20
I0
sg15
I0
sg22
I0
sg23
I0
sg24
I0
sg17
I0
sg25
I0
sa(dp203
g3
I1
sg4
I0
sg5
I0
sg6
I0
sg7
I0
sg8
I0
sg9
I0
sg10
I0
sg11
I0
sg12
I0
sg13
I0
sg14
I0
sg25
I0
sg15
I0
sg2
I0
sg16
I0
sg18
I0
sg19
I0
sg21
I0
sg22
I0
sg23
I0
sg24
I0
sg17
I0
sg20
I0
sa(dp204
g3
I0
sg4
I0
sg10
I0
sg5
I0
sg7
I0
sg8
I0
sg11
I0
sg9
I0
sg6
I0
sg12
I0
sg13
I0
sg14
I0
sg24
I0
sg21
I0
sg2
I1
sg16
I0
sg18
I0
sg19
I0
sg15
I0
sg22
I0
sg23
I0
sg25
I0
sg17
I0
sg20
I0
sa(dp205
g3
I0
sg4
I0
sg5
I0
sg6
I0
sg7
I0
sg8
I0
sg9
I1
sg10
I0
sg11
I0
sg12
I0
sg13
I0
sg14
I0
sg15
I0
sg2
I0
sg16
I0
sg18
I0
sg19
I0
sg20
I0
sg21
I0
sg22
I0
sg23
I0
sg24
I0
sg17
I0
sg25
I0
sa(dp206
g3
I0
sg4
I0
sg10
I0
sg5
I0
sg7
I0
sg8
I0
sg11
I0
sg9
I0
sg6
I0
sg12
I0
sg13
I0
sg14
I0
sg25
I0
sg21
I0
sg2
I0
sg16
I0
sg18
I0
sg19
I0
sg15
I1
sg22
I0
sg23
I0
sg24
I0
sg17
I0
sg20
I0
sa(dp207
g3
I0
sg4
I0
sg5
I0
sg6
I0
sg7
I1
sg8
I0
sg9
I0
sg10
I0
sg11
I0
sg12
I0
sg13
I0
sg14
I0
sg24
I0
sg15
I0
sg2
I0
sg16
I0
sg18
I0
sg19
I0
sg21
I0
sg22
I0
sg23
I0
sg25
I0
sg17
I0
sg20
I0
sa(dp208
g3
I0
sg4
I0
sg10
I0
sg5
I0
sg7
I0
sg8
I0
sg11
I0
sg9
I0
sg6
I0
sg12
I0
sg13
I0
sg14
I0
sg21
I0
sg2
I0
sg16
I1
sg18
I0
sg19
I0
sg20
I0
sg15
I0
sg22
I0
sg23
I0
sg24
I0
sg17
I0
sg25
I0
sa(dp209
g3
I0
sg4
I0
sg5
I0
sg6
I0
sg7
I0
sg8
I1
sg9
I0
sg10
I0
sg11
I0
sg12
I0
sg13
I0
sg14
I0
sg25
I0
sg15
I0
sg2
I0
sg16
I0
sg18
I0
sg19
I0
sg21
I0
sg22
I0
sg23
I0
sg24
I0
sg17
I0
sg20
I0
sa(dp210
g3
I0
sg4
I0
sg10
I0
sg5
I0
sg7
I0
sg8
I0
sg11
I0
sg9
I0
sg6
I0
sg12
I0
sg13
I0
sg14
I0
sg24
I0
sg21
I0
sg2
I0
sg16
I0
sg18
I0
sg19
I0
sg15
I1
sg22
I0
sg23
I0
sg25
I0
sg17
I0
sg20
I0
sa(dp211
g3
I0
sg4
I0
sg5
I0
sg6
I0
sg7
I0
sg8
I1
sg9
I0
sg10
I0
sg11
I0
sg12
I0
sg13
I0
sg14
I0
sg15
I0
sg2
I0
sg16
I0
sg18
I0
sg19
I0
sg20
I0
sg21
I0
sg22
I0
sg23
I0
sg24
I0
sg17
I0
sg25
I0
sa(dp212
g3
I0
sg4
I0
sg10
I0
sg5
I0
sg7
I0
sg8
I0
sg11
I1
sg9
I0
sg6
I0
sg12
I0
sg13
I0
sg14
I0
sg25
I0
sg21
I0
sg2
I0
sg16
I0
sg18
I0
sg19
I0
sg15
I0
sg22
I0
sg23
I0
sg24
I0
sg17
I0
sg20
I0
sa(dp213
g3
I0
sg4
I0
sg5
I0
sg6
I0
sg7
I0
sg8
I0
sg9
I0
sg10
I0
sg11
I0
sg12
I1
sg13
I0
sg14
I0
sg24
I0
sg15
I0
sg2
I0
sg16
I0
sg18
I0
sg19
I0
sg21
I0
sg22
I0
sg23
I0
sg25
I0
sg17
I0
sg20
I0
sa(dp214
g3
I0
sg4
I0
sg10
I0
sg5
I0
sg7
I0
sg8
I1
sg11
I0
sg9
I0
sg6
I0
sg12
I0
sg13
I0
sg14
I0
sg21
I0
sg2
I0
sg16
I0
sg18
I0
sg19
I0
sg20
I0
sg15
I0
sg22
I0
sg23
I0
sg24
I0
sg17
I0
sg25
I0
sa(dp215
g3
I0
sg4
I0
sg5
I0
sg6
I0
sg7
I0
sg8
I0
sg9
I0
sg10
I0
sg11
I0
sg12
I0
sg13
I0
sg14
I0
sg25
I0
sg15
I0
sg2
I0
sg16
I1
sg18
I0
sg19
I0
sg21
I0
sg22
I0
sg23
I0
sg24
I0
sg17
I0
sg20
I0
sa(dp216
g3
I0
sg4
I0
sg10
I0
sg5
I0
sg7
I0
sg8
I0
sg11
I0
sg9
I0
sg6
I0
sg12
I0
sg13
I0
sg14
I0
sg24
I0
sg21
I0
sg2
I0
sg16
I0
sg18
I0
sg19
I1
sg15
I0
sg22
I0
sg23
I0
sg25
I0
sg17
I0
sg20
I0
sa(dp217
g3
I0
sg4
I0
sg5
I0
sg6
I0
sg7
I1
sg8
I0
sg9
I0
sg10
I0
sg11
I0
sg12
I0
sg13
I0
sg14
I0
sg15
I0
sg2
I0
sg16
I0
sg18
I0
sg19
I0
sg20
I0
sg21
I0
sg22
I0
sg23
I0
sg24
I0
sg17
I0
sg25
I0
sa(dp218
g3
I0
sg4
I0
sg10
I0
sg5
I0
sg7
I0
sg8
I0
sg11
I0
sg9
I0
sg6
I0
sg12
I0
sg13
I0
sg14
I0
sg25
I0
sg21
I0
sg2
I0
sg16
I1
sg18
I0
sg19
I0
sg15
I0
sg22
I0
sg23
I0
sg24
I0
sg17
I0
sg20
I0
sa(dp219
g3
I0
sg4
I0
sg5
I0
sg6
I0
sg7
I0
sg8
I0
sg9
I0
sg10
I0
sg11
I0
sg12
I0
sg13
I0
sg14
I0
sg24
I0
sg15
I0
sg2
I1
sg16
I0
sg18
I0
sg19
I0
sg21
I0
sg22
I0
sg23
I0
sg25
I0
sg17
I0
sg20
I0
sa(dp220
g3
I0
sg4
I0
sg10
I0
sg5
I0
sg7
I0
sg8
I1
sg11
I0
sg9
I0
sg6
I0
sg12
I0
sg13
I0
sg14
I0
sg21
I0
sg2
I0
sg16
I0
sg18
I0
sg19
I0
sg20
I0
sg15
I0
sg22
I0
sg23
I0
sg24
I0
sg17
I0
sg25
I0
sa(dp221
g3
I0
sg4
I0
sg5
I0
sg6
I0
sg7
I0
sg8
I0
sg9
I0
sg10
I0
sg11
I0
sg12
I0
sg13
I0
sg14
I0
sg25
I0
sg15
I1
sg2
I0
sg16
I0
sg18
I0
sg19
I0
sg21
I0
sg22
I0
sg23
I0
sg24
I0
sg17
I0
sg20
I0
sa(dp222
g3
I0
sg4
I0
sg10
I0
sg5
I0
sg7
I0
sg8
I1
sg11
I0
sg9
I0
sg6
I0
sg12
I0
sg13
I0
sg14
I0
sg24
I0
sg21
I0
sg2
I0
sg16
I0
sg18
I0
sg19
I0
sg15
I0
sg22
I0
sg23
I0
sg25
I0
sg17
I0
sg20
I0
sa(dp223
g3
I0
sg4
I0
sg5
I0
sg6
I0
sg7
I0
sg8
I0
sg9
I0
sg10
I0
sg11
I0
sg12
I0
sg13
I0
sg14
I0
sg15
I1
sg2
I0
sg16
I0
sg18
I0
sg19
I0
sg20
I0
sg21
I0
sg22
I0
sg23
I0
sg24
I0
sg17
I0
sg25
I0
sa(dp224
g3
I0
sg4
I0
sg10
I0
sg5
I0
sg7
I0
sg8
I1
sg11
I0
sg9
I0
sg6
I0
sg12
I0
sg13
I0
sg14
I0
sg25
I0
sg21
I0
sg2
I0
sg16
I0
sg18
I0
sg19
I0
sg15
I0
sg22
I0
sg23
I0
sg24
I0
sg17
I0
sg20
I0
sa(dp225
g3
I0
sg4
I0
sg5
I0
sg6
I0
sg7
I0
sg8
I0
sg9
I0
sg10
I0
sg11
I0
sg12
I0
sg13
I0
sg14
I1
sg24
I0
sg15
I0
sg2
I0
sg16
I0
sg18
I0
sg19
I0
sg21
I0
sg22
I0
sg23
I0
sg25
I0
sg17
I0
sg20
I0
sa(dp226
g3
I0
sg4
I0
sg10
I0
sg5
I0
sg7
I0
sg8
I0
sg11
I0
sg9
I0
sg6
I0
sg12
I1
sg13
I0
sg14
I0
sg21
I0
sg2
I0
sg16
I0
sg18
I0
sg19
I0
sg20
I0
sg15
I0
sg22
I0
sg23
I0
sg24
I0
sg17
I0
sg25
I0
sa(dp227
g3
I0
sg4
I0
sg5
I0
sg6
I0
sg7
I0
sg8
I1
sg9
I0
sg10
I0
sg11
I0
sg12
I0
sg13
I0
sg14
I0
sg25
I0
sg15
I0
sg2
I0
sg16
I0
sg18
I0
sg19
I0
sg21
I0
sg22
I0
sg23
I0
sg24
I0
sg17
I0
sg20
I0
sa(dp228
g3
I0
sg4
I0
sg10
I1
sg5
I0
sg7
I0
sg8
I0
sg11
I0
sg9
I0
sg6
I0
sg12
I0
sg13
I0
sg14
I0
sg24
I0
sg21
I0
sg2
I0
sg16
I0
sg18
I0
sg19
I0
sg15
I0
sg22
I0
sg23
I0
sg25
I0
sg17
I0
sg20
I0
sa(dp229
g3
I0
sg4
I0
sg5
I0
sg6
I0
sg7
I0
sg8
I1
sg9
I0
sg10
I0
sg11
I0
sg12
I0
sg13
I0
sg14
I0
sg15
I0
sg2
I0
sg16
I0
sg18
I0
sg19
I0
sg20
I0
sg21
I0
sg22
I0
sg23
I0
sg24
I0
sg17
I0
sg25
I0
sa(dp230
g3
I0
sg4
I0
sg10
I0
sg5
I0
sg7
I0
sg8
I0
sg11
I0
sg9
I0
sg6
I0
sg12
I1
sg13
I0
sg14
I0
sg25
I0
sg21
I0
sg2
I0
sg16
I0
sg18
I0
sg19
I0
sg15
I0
sg22
I0
sg23
I0
sg24
I0
sg17
I0
sg20
I0
sa(dp231
g3
I0
sg4
I0
sg5
I0
sg6
I0
sg7
I1
sg8
I0
sg9
I0
sg10
I0
sg11
I0
sg12
I0
sg13
I0
sg14
I0
sg24
I0
sg15
I0
sg2
I0
sg16
I0
sg18
I0
sg19
I0
sg21
I0
sg22
I0
sg23
I0
sg25
I0
sg17
I0
sg20
I0
sa(dp232
g3
I0
sg4
I0
sg10
I1
sg5
I0
sg7
I0
sg8
I0
sg11
I0
sg9
I0
sg6
I0
sg12
I0
sg13
I0
sg14
I0
sg21
I0
sg2
I0
sg16
I0
sg18
I0
sg19
I0
sg20
I0
sg15
I0
sg22
I0
sg23
I0
sg24
I0
sg17
I0
sg25
I0
sa(dp233
g3
I0
sg4
I0
sg5
I0
sg6
I0
sg7
I0
sg8
I1
sg9
I0
sg10
I0
sg11
I0
sg12
I0
sg13
I0
sg14
I0
sg25
I0
sg15
I0
sg2
I0
sg16
I0
sg18
I0
sg19
I0
sg21
I0
sg22
I0
sg23
I0
sg24
I0
sg17
I0
sg20
I0
sa(dp234
g3
I0
sg4
I0
sg10
I0
sg5
I0
sg7
I0
sg8
I0
sg11
I0
sg9
I0
sg6
I0
sg12
I1
sg13
I0
sg14
I0
sg24
I0
sg21
I0
sg2
I0
sg16
I0
sg18
I0
sg19
I0
sg15
I0
sg22
I0
sg23
I0
sg25
I0
sg17
I0
sg20
I0
sa(dp235
g3
I0
sg4
I0
sg5
I0
sg6
I0
sg7
I0
sg8
I1
sg9
I0
sg10
I0
sg11
I0
sg12
I0
sg13
I0
sg14
I0
sg15
I0
sg2
I0
sg16
I0
sg18
I0
sg19
I0
sg20
I0
sg21
I0
sg22
I0
sg23
I0
sg24
I0
sg17
I0
sg25
I0
sa(dp236
g3
I0
sg4
I0
sg10
I0
sg5
I0
sg7
I0
sg8
I0
sg11
I0
sg9
I0
sg6
I0
sg12
I0
sg13
I0
sg14
I0
sg25
I0
sg21
I1
sg2
I0
sg16
I0
sg18
I0
sg19
I0
sg15
I0
sg22
I0
sg23
I0
sg24
I0
sg17
I0
sg20
I0
sa(dp237
g3
I0
sg4
I0
sg5
I0
sg6
I0
sg7
I0
sg8
I0
sg9
I0
sg10
I0
sg11
I0
sg12
I0
sg13
I0
sg14
I0
sg24
I0
sg15
I0
sg2
I1
sg16
I0
sg18
I0
sg19
I0
sg21
I0
sg22
I0
sg23
I0
sg25
I0
sg17
I0
sg20
I0
sa(dp238
g3
I0
sg4
I0
sg10
I0
sg5
I0
sg7
I0
sg8
I0
sg11
I0
sg9
I0
sg6
I0
sg12
I0
sg13
I0
sg14
I0
sg21
I0
sg2
I0
sg16
I0
sg18
I0
sg19
I0
sg20
I0
sg15
I0
sg22
I0
sg23
I1
sg24
I0
sg17
I0
sg25
I0
sa(dp239
g3
I0
sg4
I0
sg5
I0
sg6
I0
sg7
I0
sg8
I0
sg9
I0
sg10
I0
sg11
I0
sg12
I0
sg13
I0
sg14
I0
sg25
I0
sg15
I0
sg2
I0
sg16
I0
sg18
I1
sg19
I0
sg21
I0
sg22
I0
sg23
I0
sg24
I0
sg17
I0
sg20
I0
sa(dp240
g3
I0
sg4
I0
sg10
I0
sg5
I0
sg7
I0
sg8
I1
sg11
I0
sg9
I0
sg6
I0
sg12
I0
sg13
I0
sg14
I0
sg24
I0
sg21
I0
sg2
I0
sg16
I0
sg18
I0
sg19
I0
sg15
I0
sg22
I0
sg23
I0
sg25
I0
sg17
I0
sg20
I0
sa(dp241
g3
I1
sg4
I0
sg5
I0
sg6
I0
sg7
I0
sg8
I0
sg9
I0
sg10
I0
sg11
I0
sg12
I0
sg13
I0
sg14
I0
sg15
I0
sg2
I0
sg16
I0
sg18
I0
sg19
I0
sg20
I0
sg21
I0
sg22
I0
sg23
I0
sg24
I0
sg17
I0
sg25
I0
sa(dp242
g3
I0
sg4
I0
sg10
I0
sg5
I0
sg7
I0
sg8
I1
sg11
I0
sg9
I0
sg6
I0
sg12
I0
sg13
I0
sg14
I0
sg25
I0
sg21
I0
sg2
I0
sg16
I0
sg18
I0
sg19
I0
sg15
I0
sg22
I0
sg23
I0
sg24
I0
sg17
I0
sg20
I0
sa(dp243
g3
I0
sg4
I0
sg5
I0
sg6
I0
sg7
I0
sg8
I0
sg9
I0
sg10
I0
sg11
I0
sg12
I0
sg13
I0
sg14
I0
sg24
I0
sg15
I1
sg2
I0
sg16
I0
sg18
I0
sg19
I0
sg21
I0
sg22
I0
sg23
I0
sg25
I0
sg17
I0
sg20
I0
sa(dp244
g3
I0
sg4
I1
sg10
I0
sg5
I0
sg7
I0
sg8
I0
sg11
I0
sg9
I0
sg6
I0
sg12
I0
sg13
I0
sg14
I0
sg21
I0
sg2
I0
sg16
I0
sg18
I0
sg19
I0
sg20
I0
sg15
I0
sg22
I0
sg23
I0
sg24
I0
sg17
I0
sg25
I0
sa(dp245
g3
I0
sg4
I0
sg5
I0
sg6
I0
sg7
I0
sg8
I0
sg9
I1
sg10
I0
sg11
I0
sg12
I0
sg13
I0
sg14
I0
sg25
I0
sg15
I0
sg2
I0
sg16
I0
sg18
I0
sg19
I0
sg21
I0
sg22
I0
sg23
I0
sg24
I0
sg17
I0
sg20
I0
sa(dp246
g3
I0
sg4
I0
sg10
I0
sg5
I0
sg7
I0
sg8
I1
sg11
I0
sg9
I0
sg6
I0
sg12
I0
sg13
I0
sg14
I0
sg24
I0
sg21
I0
sg2
I0
sg16
I0
sg18
I0
sg19
I0
sg15
I0
sg22
I0
sg23
I0
sg25
I0
sg17
I0
sg20
I0
sa(dp247
g3
I0
sg4
I0
sg5
I0
sg6
I0
sg7
I0
sg8
I0
sg9
I0
sg10
I0
sg11
I0
sg12
I0
sg13
I0
sg14
I0
sg15
I0
sg2
I0
sg16
I0
sg18
I1
sg19
I0
sg20
I0
sg21
I0
sg22
I0
sg23
I0
sg24
I0
sg17
I0
sg25
I0
sa(dp248
g3
I0
sg4
I0
sg10
I0
sg5
I0
sg7
I0
sg8
I0
sg11
I0
sg9
I1
sg6
I0
sg12
I0
sg13
I0
sg14
I0
sg25
I0
sg21
I0
sg2
I0
sg16
I0
sg18
I0
sg19
I0
sg15
I0
sg22
I0
sg23
I0
sg24
I0
sg17
I0
sg20
I0
sa(dp249
g3
I0
sg4
I0
sg5
I0
sg6
I0
sg7
I0
sg8
I1
sg9
I0
sg10
I0
sg11
I0
sg12
I0
sg13
I0
sg14
I0
sg24
I0
sg15
I0
sg2
I0
sg16
I0
sg18
I0
sg19
I0
sg21
I0
sg22
I0
sg23
I0
sg25
I0
sg17
I0
sg20
I0
sa(dp250
g3
I0
sg4
I0
sg10
I0
sg5
I0
sg7
I0
sg8
I0
sg11
I1
sg9
I0
sg6
I0
sg12
I0
sg13
I0
sg14
I0
sg21
I0
sg2
I0
sg16
I0
sg18
I0
sg19
I0
sg20
I0
sg15
I0
sg22
I0
sg23
I0
sg24
I0
sg17
I0
sg25
I0
sa(dp251
g3
I0
sg4
I0
sg5
I0
sg6
I0
sg7
I0
sg8
I1
sg9
I0
sg10
I0
sg11
I0
sg12
I0
sg13
I0
sg14
I0
sg25
I0
sg15
I0
sg2
I0
sg16
I0
sg18
I0
sg19
I0
sg21
I0
sg22
I0
sg23
I0
sg24
I0
sg17
I0
sg20
I0
sa(dp252
g3
I0
sg4
I0
sg10
I0
sg5
I0
sg7
I0
sg8
I0
sg11
I0
sg9
I0
sg6
I0
sg12
I1
sg13
I0
sg14
I0
sg24
I0
sg21
I0
sg2
I0
sg16
I0
sg18
I0
sg19
I0
sg15
I0
sg22
I0
sg23
I0
sg25
I0
sg17
I0
sg20
I0
sa(dp253
g3
I0
sg4
I0
sg5
I0
sg6
I1
sg7
I0
sg8
I0
sg9
I0
sg10
I0
sg11
I0
sg12
I0
sg13
I0
sg14
I0
sg15
I0
sg2
I0
sg16
I0
sg18
I0
sg19
I0
sg20
I0
sg21
I0
sg22
I0
sg23
I0
sg24
I0
sg17
I0
sg25
I0
sa(dp254
g3
I0
sg4
I0
sg10
I0
sg5
I0
sg7
I0
sg8
I1
sg11
I0
sg9
I0
sg6
I0
sg12
I0
sg13
I0
sg14
I0
sg25
I0
sg21
I0
sg2
I0
sg16
I0
sg18
I0
sg19
I0
sg15
I0
sg22
I0
sg23
I0
sg24
I0
sg17
I0
sg20
I0
sa(dp255
g3
I0
sg4
I1
sg5
I0
sg6
I0
sg7
I0
sg8
I0
sg9
I0
sg10
I0
sg11
I0
sg12
I0
sg13
I0
sg14
I0
sg24
I0
sg15
I0
sg2
I0
sg16
I0
sg18
I0
sg19
I0
sg21
I0
sg22
I0
sg23
I0
sg25
I0
sg17
I0
sg20
I0
sa(dp256
g3
I0
sg4
I0
sg10
I0
sg5
I0
sg7
I1
sg8
I0
sg11
I0
sg9
I0
sg6
I0
sg12
I0
sg13
I0
sg14
I0
sg21
I0
sg2
I0
sg16
I0
sg18
I0
sg19
I0
sg20
I0
sg15
I0
sg22
I0
sg23
I0
sg24
I0
sg17
I0
sg25
I0
sa(dp257
g3
I0
sg4
I0
sg5
I0
sg6
I0
sg7
I0
sg8
I0
sg9
I0
sg10
I0
sg11
I0
sg12
I1
sg13
I0
sg14
I0
sg25
I0
sg15
I0
sg2
I0
sg16
I0
sg18
I0
sg19
I0
sg21
I0
sg22
I0
sg23
I0
sg24
I0
sg17
I0
sg20
I0
sa(dp258
g3
I0
sg4
I0
sg10
I0
sg5
I0
sg7
I0
sg8
I0
sg11
I1
sg9
I0
sg6
I0
sg12
I0
sg13
I0
sg14
I0
sg24
I0
sg21
I0
sg2
I0
sg16
I0
sg18
I0
sg19
I0
sg15
I0
sg22
I0
sg23
I0
sg25
I0
sg17
I0
sg20
I0
sa(dp259
g3
I0
sg4
I0
sg5
I0
sg6
I0
sg7
I0
sg8
I0
sg9
I0
sg10
I0
sg11
I0
sg12
I0
sg13
I0
sg14
I0
sg15
I0
sg2
I0
sg16
I0
sg18
I1
sg19
I0
sg20
I0
sg21
I0
sg22
I0
sg23
I0
sg24
I0
sg17
I0
sg25
I0
sa(dp260
g3
I0
sg4
I0
sg10
I0
sg5
I0
sg7
I0
sg8
I1
sg11
I0
sg9
I0
sg6
I0
sg12
I0
sg13
I0
sg14
I0
sg25
I0
sg21
I0
sg2
I0
sg16
I0
sg18
I0
sg19
I0
sg15
I0
sg22
I0
sg23
I0
sg24
I0
sg17
I0
sg20
I0
sa(dp261
g3
I0
sg4
I0
sg5
I0
sg6
I0
sg7
I0
sg8
I1
sg9
I0
sg10
I0
sg11
I0
sg12
I0
sg13
I0
sg14
I0
sg24
I0
sg15
I0
sg2
I0
sg16
I0
sg18
I0
sg19
I0
sg21
I0
sg22
I0
sg23
I0
sg25
I0
sg17
I0
sg20
I0
sa(dp262
g3
I0
sg4
I0
sg10
I0
sg5
I0
sg7
I0
sg8
I1
sg11
I0
sg9
I0
sg6
I0
sg12
I0
sg13
I0
sg14
I0
sg21
I0
sg2
I0
sg16
I0
sg18
I0
sg19
I0
sg20
I0
sg15
I0
sg22
I0
sg23
I0
sg24
I0
sg17
I0
sg25
I0
sa(dp263
g3
I0
sg4
I0
sg5
I0
sg6
I0
sg7
I0
sg8
I0
sg9
I0
sg10
I0
sg11
I0
sg12
I0
sg13
I0
sg14
I0
sg25
I0
sg15
I0
sg2
I0
sg16
I0
sg18
I1
sg19
I0
sg21
I0
sg22
I0
sg23
I0
sg24
I0
sg17
I0
sg20
I0
sa(dp264
g3
I0
sg4
I0
sg10
I0
sg5
I0
sg7
I0
sg8
I0
sg11
I0
sg9
I0
sg6
I0
sg12
I0
sg13
I0
sg14
I1
sg24
I0
sg21
I0
sg2
I0
sg16
I0
sg18
I0
sg19
I0
sg15
I0
sg22
I0
sg23
I0
sg25
I0
sg17
I0
sg20
I0
sa(dp265
g3
I0
sg4
I0
sg5
I0
sg6
I0
sg7
I0
sg8
I0
sg9
I0
sg10
I0
sg11
I0
sg12
I0
sg13
I0
sg14
I0
sg15
I0
sg2
I0
sg16
I0
sg18
I0
sg19
I1
sg20
I0
sg21
I0
sg22
I0
sg23
I0
sg24
I0
sg17
I0
sg25
I0
sa(dp266
g3
I0
sg4
I0
sg10
I0
sg5
I0
sg7
I0
sg8
I1
sg11
I0
sg9
I0
sg6
I0
sg12
I0
sg13
I0
sg14
I0
sg25
I0
sg21
I0
sg2
I0
sg16
I0
sg18
I0
sg19
I0
sg15
I0
sg22
I0
sg23
I0
sg24
I0
sg17
I0
sg20
I0
sa(dp267
g3
I0
sg4
I0
sg5
I0
sg6
I0
sg7
I0
sg8
I0
sg9
I0
sg10
I0
sg11
I0
sg12
I0
sg13
I0
sg14
I1
sg24
I0
sg15
I0
sg2
I0
sg16
I0
sg18
I0
sg19
I0
sg21
I0
sg22
I0
sg23
I0
sg25
I0
sg17
I0
sg20
I0
sa(dp268
g3
I0
sg4
I0
sg10
I0
sg5
I0
sg7
I0
sg8
I1
sg11
I0
sg9
I0
sg6
I0
sg12
I0
sg13
I0
sg14
I0
sg21
I0
sg2
I0
sg16
I0
sg18
I0
sg19
I0
sg20
I0
sg15
I0
sg22
I0
sg23
I0
sg24
I0
sg17
I0
sg25
I0
sa(dp269
g3
I0
sg4
I0
sg5
I0
sg6
I0
sg7
I1
sg8
I0
sg9
I0
sg10
I0
sg11
I0
sg12
I0
sg13
I0
sg14
I0
sg25
I0
sg15
I0
sg2
I0
sg16
I0
sg18
I0
sg19
I0
sg21
I0
sg22
I0
sg23
I0
sg24
I0
sg17
I0
sg20
I0
sa(dp270
g3
I0
sg4
I0
sg10
I0
sg5
I0
sg7
I0
sg8
I0
sg11
I0
sg9
I0
sg6
I0
sg12
I0
sg13
I0
sg14
I0
sg24
I0
sg21
I0
sg2
I0
sg16
I0
sg18
I0
sg19
I0
sg15
I0
sg22
I0
sg23
I1
sg25
I0
sg17
I0
sg20
I0
sa(dp271
g3
I0
sg4
I0
sg5
I0
sg6
I0
sg7
I1
sg8
I0
sg9
I0
sg10
I0
sg11
I0
sg12
I0
sg13
I0
sg14
I0
sg15
I0
sg2
I0
sg16
I0
sg18
I0
sg19
I0
sg20
I0
sg21
I0
sg22
I0
sg23
I0
sg24
I0
sg17
I0
sg25
I0
sa(dp272
g3
I0
sg4
I0
sg10
I0
sg5
I0
sg7
I0
sg8
I0
sg11
I0
sg9
I0
sg6
I0
sg12
I1
sg13
I0
sg14
I0
sg25
I0
sg21
I0
sg2
I0
sg16
I0
sg18
I0
sg19
I0
sg15
I0
sg22
I0
sg23
I0
sg24
I0
sg17
I0
sg20
I0
sa(dp273
g3
I0
sg4
I0
sg5
I0
sg6
I0
sg7
I0
sg8
I1
sg9
I0
sg10
I0
sg11
I0
sg12
I0
sg13
I0
sg14
I0
sg24
I0
sg15
I0
sg2
I0
sg16
I0
sg18
I0
sg19
I0
sg21
I0
sg22
I0
sg23
I0
sg25
I0
sg17
I0
sg20
I0
sa(dp274
g3
I0
sg4
I0
sg10
I0
sg5
I0
sg7
I0
sg8
I0
sg11
I0
sg9
I0
sg6
I0
sg12
I0
sg13
I1
sg14
I0
sg21
I0
sg2
I0
sg16
I0
sg18
I0
sg19
I0
sg20
I0
sg15
I0
sg22
I0
sg23
I0
sg24
I0
sg17
I0
sg25
I0
sa(dp275
g3
I0
sg4
I0
sg5
I0
sg6
I0
sg7
I0
sg8
I0
sg9
I0
sg10
I1
sg11
I0
sg12
I0
sg13
I0
sg14
I0
sg25
I0
sg15
I0
sg2
I0
sg16
I0
sg18
I0
sg19
I0
sg21
I0
sg22
I0
sg23
I0
sg24
I0
sg17
I0
sg20
I0
sa(dp276
g3
I0
sg4
I0
sg10
I0
sg5
I0
sg7
I0
sg8
I0
sg11
I0
sg9
I0
sg6
I0
sg12
I0
sg13
I0
sg14
I0
sg24
I0
sg21
I0
sg2
I1
sg16
I0
sg18
I0
sg19
I0
sg15
I0
sg22
I0
sg23
I0
sg25
I0
sg17
I0
sg20
I0
sa(dp277
g3
I0
sg4
I0
sg5
I0
sg6
I0
sg7
I0
sg8
I0
sg9
I0
sg10
I0
sg11
I0
sg12
I0
sg13
I0
sg14
I0
sg15
I0
sg2
I0
sg16
I0
sg18
I0
sg19
I0
sg20
I0
sg21
I1
sg22
I0
sg23
I0
sg24
I0
sg17
I0
sg25
I0
sa(dp278
g3
I0
sg4
I0
sg10
I0
sg5
I0
sg7
I0
sg8
I0
sg11
I1
sg9
I0
sg6
I0
sg12
I0
sg13
I0
sg14
I0
sg25
I0
sg21
I0
sg2
I0
sg16
I0
sg18
I0
sg19
I0
sg15
I0
sg22
I0
sg23
I0
sg24
I0
sg17
I0
sg20
I0
sa(dp279
g3
I0
sg4
I0
sg5
I0
sg6
I0
sg7
I0
sg8
I0
sg9
I0
sg10
I0
sg11
I0
sg12
I0
sg13
I0
sg14
I0
sg24
I0
sg15
I0
sg2
I0
sg16
I0
sg18
I0
sg19
I0
sg21
I1
sg22
I0
sg23
I0
sg25
I0
sg17
I0
sg20
I0
sa(dp280
g3
I0
sg4
I0
sg10
I0
sg5
I0
sg7
I1
sg8
I0
sg11
I0
sg9
I0
sg6
I0
sg12
I0
sg13
I0
sg14
I0
sg21
I0
sg2
I0
sg16
I0
sg18
I0
sg19
I0
sg20
I0
sg15
I0
sg22
I0
sg23
I0
sg24
I0
sg17
I0
sg25
I0
sa(dp281
g3
I0
sg4
I0
sg5
I0
sg6
I0
sg7
I0
sg8
I0
sg9
I0
sg10
I0
sg11
I0
sg12
I0
sg13
I0
sg14
I1
sg25
I0
sg15
I0
sg2
I0
sg16
I0
sg18
I0
sg19
I0
sg21
I0
sg22
I0
sg23
I0
sg24
I0
sg17
I0
sg20
I0
sa(dp282
g3
I0
sg4
I0
sg10
I0
sg5
I0
sg7
I1
sg8
I0
sg11
I0
sg9
I0
sg6
I0
sg12
I0
sg13
I0
sg14
I0
sg24
I0
sg21
I0
sg2
I0
sg16
I0
sg18
I0
sg19
I0
sg15
I0
sg22
I0
sg23
I0
sg25
I0
sg17
I0
sg20
I0
sa(dp283
g3
I0
sg4
I0
sg5
I0
sg6
I0
sg7
I0
sg8
I1
sg9
I0
sg10
I0
sg11
I0
sg12
I0
sg13
I0
sg14
I0
sg15
I0
sg2
I0
sg16
I0
sg18
I0
sg19
I0
sg20
I0
sg21
I0
sg22
I0
sg23
I0
sg24
I0
sg17
I0
sg25
I0
sa(dp284
g3
I0
sg4
I0
sg10
I0
sg5
I0
sg7
I1
sg8
I0
sg11
I0
sg9
I0
sg6
I0
sg12
I0
sg13
I0
sg14
I0
sg25
I0
sg21
I0
sg2
I0
sg16
I0
sg18
I0
sg19
I0
sg15
I0
sg22
I0
sg23
I0
sg24
I0
sg17
I0
sg20
I0
sa(dp285
g3
I0
sg4
I0
sg5
I0
sg6
I0
sg7
I0
sg8
I0
sg9
I0
sg10
I0
sg11
I0
sg12
I0
sg13
I0
sg14
I0
sg24
I0
sg15
I0
sg2
I0
sg16
I0
sg18
I0
sg19
I1
sg21
I0
sg22
I0
sg23
I0
sg25
I0
sg17
I0
sg20
I0
sa(dp286
g3
I0
sg4
I0
sg10
I0
sg5
I0
sg7
I0
sg8
I0
sg11
I0
sg9
I0
sg6
I0
sg12
I0
sg13
I0
sg14
I0
sg21
I0
sg2
I0
sg16
I1
sg18
I0
sg19
I0
sg20
I0
sg15
I0
sg22
I0
sg23
I0
sg24
I0
sg17
I0
sg25
I0
sa(dp287
g3
I0
sg4
I0
sg5
I0
sg6
I0
sg7
I0
sg8
I0
sg9
I0
sg10
I0
sg11
I0
sg12
I0
sg13
I0
sg14
I0
sg25
I1
sg15
I0
sg2
I0
sg16
I0
sg18
I0
sg19
I0
sg21
I0
sg22
I0
sg23
I0
sg24
I0
sg17
I0
sg20
I0
sa(dp288
g3
I0
sg4
I0
sg10
I0
sg5
I0
sg7
I0
sg8
I0
sg11
I0
sg9
I0
sg6
I0
sg12
I0
sg13
I0
sg14
I1
sg24
I0
sg21
I0
sg2
I0
sg16
I0
sg18
I0
sg19
I0
sg15
I0
sg22
I0
sg23
I0
sg25
I0
sg17
I0
sg20
I0
sa(dp289
g3
I0
sg4
I0
sg5
I0
sg6
I0
sg7
I0
sg8
I0
sg9
I0
sg10
I0
sg11
I1
sg12
I0
sg13
I0
sg14
I0
sg15
I0
sg2
I0
sg16
I0
sg18
I0
sg19
I0
sg20
I0
sg21
I0
sg22
I0
sg23
I0
sg24
I0
sg17
I0
sg25
I0
sa(dp290
g3
I0
sg4
I0
sg10
I0
sg5
I0
sg7
I0
sg8
I0
sg11
I0
sg9
I0
sg6
I0
sg12
I0
sg13
I0
sg14
I0
sg25
I0
sg21
I0
sg2
I0
sg16
I0
sg18
I1
sg19
I0
sg15
I0
sg22
I0
sg23
I0
sg24
I0
sg17
I0
sg20
I0
sa(dp291
g3
I0
sg4
I1
sg5
I0
sg6
I0
sg7
I0
sg8
I0
sg9
I0
sg10
I0
sg11
I0
sg12
I0
sg13
I0
sg14
I0
sg24
I0
sg15
I0
sg2
I0
sg16
I0
sg18
I0
sg19
I0
sg21
I0
sg22
I0
sg23
I0
sg25
I0
sg17
I0
sg20
I0
sa(dp292
g3
I0
sg4
I0
sg10
I0
sg5
I0
sg7
I0
sg8
I1
sg11
I0
sg9
I0
sg6
I0
sg12
I0
sg13
I0
sg14
I0
sg21
I0
sg2
I0
sg16
I0
sg18
I0
sg19
I0
sg20
I0
sg15
I0
sg22
I0
sg23
I0
sg24
I0
sg17
I0
sg25
I0
sa(dp293
g3
I0
sg4
I0
sg5
I0
sg6
I0
sg7
I0
sg8
I0
sg9
I0
sg10
I0
sg11
I0
sg12
I0
sg13
I0
sg14
I0
sg25
I0
sg15
I0
sg2
I1
sg16
I0
sg18
I0
sg19
I0
sg21
I0
sg22
I0
sg23
I0
sg24
I0
sg17
I0
sg20
I0
sa(dp294
g3
I0
sg4
I0
sg10
I0
sg5
I0
sg7
I0
sg8
I1
sg11
I0
sg9
I0
sg6
I0
sg12
I0
sg13
I0
sg14
I0
sg24
I0
sg21
I0
sg2
I0
sg16
I0
sg18
I0
sg19
I0
sg15
I0
sg22
I0
sg23
I0
sg25
I0
sg17
I0
sg20
I0
sa(dp295
g3
I0
sg4
I0
sg5
I0
sg6
I0
sg7
I0
sg8
I0
sg9
I0
sg10
I0
sg11
I0
sg12
I0
sg13
I0
sg14
I0
sg15
I0
sg2
I0
sg16
I0
sg18
I1
sg19
I0
sg20
I0
sg21
I0
sg22
I0
sg23
I0
sg24
I0
sg17
I0
sg25
I0
sa(dp296
g3
I0
sg4
I0
sg10
I0
sg5
I0
sg7
I0
sg8
I0
sg11
I0
sg9
I0
sg6
I0
sg12
I0
sg13
I0
sg14
I0
sg25
I0
sg21
I0
sg2
I1
sg16
I0
sg18
I0
sg19
I0
sg15
I0
sg22
I0
sg23
I0
sg24
I0
sg17
I0
sg20
I0
sa(dp297
g3
I0
sg4
I0
sg5
I0
sg6
I0
sg7
I0
sg8
I1
sg9
I0
sg10
I0
sg11
I0
sg12
I0
sg13
I0
sg14
I0
sg24
I0
sg15
I0
sg2
I0
sg16
I0
sg18
I0
sg19
I0
sg21
I0
sg22
I0
sg23
I0
sg25
I0
sg17
I0
sg20
I0
sa(dp298
g3
I0
sg4
I0
sg10
I0
sg5
I0
sg7
I0
sg8
I0
sg11
I0
sg9
I1
sg6
I0
sg12
I0
sg13
I0
sg14
I0
sg21
I0
sg2
I0
sg16
I0
sg18
I0
sg19
I0
sg20
I0
sg15
I0
sg22
I0
sg23
I0
sg24
I0
sg17
I0
sg25
I0
sa(dp299
g3
I0
sg4
I0
sg5
I0
sg6
I0
sg7
I0
sg8
I0
sg9
I1
sg10
I0
sg11
I0
sg12
I0
sg13
I0
sg14
I0
sg25
I0
sg15
I0
sg2
I0
sg16
I0
sg18
I0
sg19
I0
sg21
I0
sg22
I0
sg23
I0
sg24
I0
sg17
I0
sg20
I0
sa(dp300
g3
I0
sg4
I0
sg10
I0
sg5
I0
sg7
I0
sg8
I0
sg11
I1
sg9
I0
sg6
I0
sg12
I0
sg13
I0
sg14
I0
sg24
I0
sg21
I0
sg2
I0
sg16
I0
sg18
I0
sg19
I0
sg15
I0
sg22
I0
sg23
I0
sg25
I0
sg17
I0
sg20
I0
sa(dp301
g3
I0
sg4
I0
sg5
I0
sg6
I0
sg7
I0
sg8
I0
sg9
I0
sg10
I0
sg11
I0
sg12
I0
sg13
I0
sg14
I0
sg15
I1
sg2
I0
sg16
I0
sg18
I0
sg19
I0
sg20
I0
sg21
I0
sg22
I0
sg23
I0
sg24
I0
sg17
I0
sg25
I0
sa(dp302
g3
I0
sg4
I0
sg10
I0
sg5
I0
sg7
I0
sg8
I0
sg11
I0
sg9
I0
sg6
I0
sg12
I0
sg13
I0
sg14
I0
sg25
I0
sg21
I0
sg2
I0
sg16
I0
sg18
I0
sg19
I0
sg15
I0
sg22
I0
sg23
I0
sg24
I1
sg17
I0
sg20
I0
sa(dp303
g3
I0
sg4
I0
sg5
I0
sg6
I0
sg7
I0
sg8
I1
sg9
I0
sg10
I0
sg11
I0
sg12
I0
sg13
I0
sg14
I0
sg24
I0
sg15
I0
sg2
I0
sg16
I0
sg18
I0
sg19
I0
sg21
I0
sg22
I0
sg23
I0
sg25
I0
sg17
I0
sg20
I0
sa(dp304
g3
I0
sg4
I0
sg10
I0
sg5
I0
sg7
I0
sg8
I1
sg11
I0
sg9
I0
sg6
I0
sg12
I0
sg13
I0
sg14
I0
sg21
I0
sg2
I0
sg16
I0
sg18
I0
sg19
I0
sg20
I0
sg15
I0
sg22
I0
sg23
I0
sg24
I0
sg17
I0
sg25
I0
sa(dp305
g3
I0
sg4
I0
sg5
I0
sg6
I0
sg7
I1
sg8
I0
sg9
I0
sg10
I0
sg11
I0
sg12
I0
sg13
I0
sg14
I0
sg25
I0
sg15
I0
sg2
I0
sg16
I0
sg18
I0
sg19
I0
sg21
I0
sg22
I0
sg23
I0
sg24
I0
sg17
I0
sg20
I0
sa(dp306
g3
I0
sg4
I0
sg10
I0
sg5
I0
sg7
I0
sg8
I1
sg11
I0
sg9
I0
sg6
I0
sg12
I0
sg13
I0
sg14
I0
sg24
I0
sg21
I0
sg2
I0
sg16
I0
sg18
I0
sg19
I0
sg15
I0
sg22
I0
sg23
I0
sg25
I0
sg17
I0
sg20
I0
sa(dp307
g3
I0
sg4
I0
sg5
I0
sg6
I0
sg7
I0
sg8
I1
sg9
I0
sg10
I0
sg11
I0
sg12
I0
sg13
I0
sg14
I0
sg15
I0
sg2
I0
sg16
I0
sg18
I0
sg19
I0
sg20
I0
sg21
I0
sg22
I0
sg23
I0
sg24
I0
sg17
I0
sg25
I0
sa(dp308
g3
I0
sg4
I0
sg10
I0
sg5
I0
sg7
I0
sg8
I0
sg11
I0
sg9
I0
sg6
I0
sg12
I1
sg13
I0
sg14
I0
sg25
I0
sg21
I0
sg2
I0
sg16
I0
sg18
I0
sg19
I0
sg15
I0
sg22
I0
sg23
I0
sg24
I0
sg17
I0
sg20
I0
sa(dp309
g3
I0
sg4
I0
sg5
I0
sg6
I0
sg7
I0
sg8
I1
sg9
I0
sg10
I0
sg11
I0
sg12
I0
sg13
I0
sg14
I0
sg24
I0
sg15
I0
sg2
I0
sg16
I0
sg18
I0
sg19
I0
sg21
I0
sg22
I0
sg23
I0
sg25
I0
sg17
I0
sg20
I0
sa(dp310
g3
I0
sg4
I0
sg10
I0
sg5
I0
sg7
I0
sg8
I0
sg11
I0
sg9
I0
sg6
I0
sg12
I0
sg13
I0
sg14
I0
sg21
I0
sg2
I0
sg16
I0
sg18
I1
sg19
I0
sg20
I0
sg15
I0
sg22
I0
sg23
I0
sg24
I0
sg17
I0
sg25
I0
sa(dp311
g3
I0
sg4
I0
sg5
I0
sg6
I0
sg7
I0
sg8
I0
sg9
I0
sg10
I0
sg11
I1
sg12
I0
sg13
I0
sg14
I0
sg25
I0
sg15
I0
sg2
I0
sg16
I0
sg18
I0
sg19
I0
sg21
I0
sg22
I0
sg23
I0
sg24
I0
sg17
I0
sg20
I0
sa(dp312
g3
I1
sg4
I0
sg10
I0
sg5
I0
sg7
I0
sg8
I0
sg11
I0
sg9
I0
sg6
I0
sg12
I0
sg13
I0
sg14
I0
sg24
I0
sg21
I0
sg2
I0
sg16
I0
sg18
I0
sg19
I0
sg15
I0
sg22
I0
sg23
I0
sg25
I0
sg17
I0
sg20
I0
sa(dp313
g3
I0
sg4
I0
sg5
I0
sg6
I0
sg7
I0
sg8
I1
sg9
I0
sg10
I0
sg11
I0
sg12
I0
sg13
I0
sg14
I0
sg15
I0
sg2
I0
sg16
I0
sg18
I0
sg19
I0
sg20
I0
sg21
I0
sg22
I0
sg23
I0
sg24
I0
sg17
I0
sg25
I0
sa(dp314
g3
I0
sg4
I0
sg10
I0
sg5
I0
sg7
I0
sg8
I0
sg11
I0
sg9
I0
sg6
I0
sg12
I1
sg13
I0
sg14
I0
sg25
I0
sg21
I0
sg2
I0
sg16
I0
sg18
I0
sg19
I0
sg15
I0
sg22
I0
sg23
I0
sg24
I0
sg17
I0
sg20
I0
sa(dp315
g3
I0
sg4
I0
sg5
I0
sg6
I0
sg7
I1
sg8
I0
sg9
I0
sg10
I0
sg11
I0
sg12
I0
sg13
I0
sg14
I0
sg24
I0
sg15
I0
sg2
I0
sg16
I0
sg18
I0
sg19
I0
sg21
I0
sg22
I0
sg23
I0
sg25
I0
sg17
I0
sg20
I0
sa(dp316
g3
I0
sg4
I0
sg10
I0
sg5
I0
sg7
I0
sg8
I0
sg11
I0
sg9
I0
sg6
I0
sg12
I0
sg13
I0
sg14
I0
sg21
I0
sg2
I0
sg16
I1
sg18
I0
sg19
I0
sg20
I0
sg15
I0
sg22
I0
sg23
I0
sg24
I0
sg17
I0
sg25
I0
sa(dp317
g3
I0
sg4
I0
sg5
I0
sg6
I0
sg7
I0
sg8
I0
sg9
I0
sg10
I0
sg11
I0
sg12
I0
sg13
I0
sg14
I0
sg25
I0
sg15
I0
sg2
I1
sg16
I0
sg18
I0
sg19
I0
sg21
I0
sg22
I0
sg23
I0
sg24
I0
sg17
I0
sg20
I0
sa(dp318
g3
I0
sg4
I0
sg10
I0
sg5
I0
sg7
I0
sg8
I0
sg11
I0
sg9
I0
sg6
I0
sg12
I1
sg13
I0
sg14
I0
sg24
I0
sg21
I0
sg2
I0
sg16
I0
sg18
I0
sg19
I0
sg15
I0
sg22
I0
sg23
I0
sg25
I0
sg17
I0
sg20
I0
sa(dp319
g3
I0
sg4
I0
sg5
I0
sg6
I0
sg7
I0
sg8
I0
sg9
I1
sg10
I0
sg11
I0
sg12
I0
sg13
I0
sg14
I0
sg15
I0
sg2
I0
sg16
I0
sg18
I0
sg19
I0
sg20
I0
sg21
I0
sg22
I0
sg23
I0
sg24
I0
sg17
I0
sg25
I0
sa(dp320
g3
I0
sg4
I0
sg10
I0
sg5
I0
sg7
I0
sg8
I0
sg11
I0
sg9
I0
sg6
I1
sg12
I0
sg13
I0
sg14
I0
sg25
I0
sg21
I0
sg2
I0
sg16
I0
sg18
I0
sg19
I0
sg15
I0
sg22
I0
sg23
I0
sg24
I0
sg17
I0
sg20
I0
sa(dp321
g3
I0
sg4
I0
sg5
I0
sg6
I0
sg7
I0
sg8
I0
sg9
I0
sg10
I0
sg11
I0
sg12
I0
sg13
I0
sg14
I0
sg24
I0
sg15
I0
sg2
I0
sg16
I0
sg18
I0
sg19
I1
sg21
I0
sg22
I0
sg23
I0
sg25
I0
sg17
I0
sg20
I0
sa(dp322
g3
I0
sg4
I0
sg10
I0
sg5
I0
sg7
I1
sg8
I0
sg11
I0
sg9
I0
sg6
I0
sg12
I0
sg13
I0
sg14
I0
sg21
I0
sg2
I0
sg16
I0
sg18
I0
sg19
I0
sg20
I0
sg15
I0
sg22
I0
sg23
I0
sg24
I0
sg17
I0
sg25
I0
sa(dp323
g3
I0
sg4
I0
sg5
I0
sg6
I0
sg7
I0
sg8
I1
sg9
I0
sg10
I0
sg11
I0
sg12
I0
sg13
I0
sg14
I0
sg25
I0
sg15
I0
sg2
I0
sg16
I0
sg18
I0
sg19
I0
sg21
I0
sg22
I0
sg23
I0
sg24
I0
sg17
I0
sg20
I0
sa(dp324
g3
I0
sg4
I0
sg10
I0
sg5
I0
sg7
I0
sg8
I1
sg11
I0
sg9
I0
sg6
I0
sg12
I0
sg13
I0
sg14
I0
sg24
I0
sg21
I0
sg2
I0
sg16
I0
sg18
I0
sg19
I0
sg15
I0
sg22
I0
sg23
I0
sg25
I0
sg17
I0
sg20
I0
sa(dp325
g3
I0
sg4
I0
sg5
I0
sg6
I0
sg7
I0
sg8
I0
sg9
I0
sg10
I0
sg11
I0
sg12
I0
sg13
I0
sg14
I0
sg15
I0
sg2
I0
sg16
I1
sg18
I0
sg19
I0
sg20
I0
sg21
I0
sg22
I0
sg23
I0
sg24
I0
sg17
I0
sg25
I0
sa(dp326
g3
I0
sg4
I0
sg10
I0
sg5
I0
sg7
I0
sg8
I1
sg11
I0
sg9
I0
sg6
I0
sg12
I0
sg13
I0
sg14
I0
sg25
I0
sg21
I0
sg2
I0
sg16
I0
sg18
I0
sg19
I0
sg15
I0
sg22
I0
sg23
I0
sg24
I0
sg17
I0
sg20
I0
sa(dp327
g3
I0
sg4
I0
sg5
I0
sg6
I0
sg7
I0
sg8
I1
sg9
I0
sg10
I0
sg11
I0
sg12
I0
sg13
I0
sg14
I0
sg24
I0
sg15
I0
sg2
I0
sg16
I0
sg18
I0
sg19
I0
sg21
I0
sg22
I0
sg23
I0
sg25
I0
sg17
I0
sg20
I0
sa(dp328
g3
I0
sg4
I0
sg10
I0
sg5
I0
sg7
I0
sg8
I0
sg11
I0
sg9
I0
sg6
I0
sg12
I1
sg13
I0
sg14
I0
sg21
I0
sg2
I0
sg16
I0
sg18
I0
sg19
I0
sg20
I0
sg15
I0
sg22
I0
sg23
I0
sg24
I0
sg17
I0
sg25
I0
sa(dp329
g3
I0
sg4
I0
sg5
I0
sg6
I0
sg7
I0
sg8
I1
sg9
I0
sg10
I0
sg11
I0
sg12
I0
sg13
I0
sg14
I0
sg25
I0
sg15
I0
sg2
I0
sg16
I0
sg18
I0
sg19
I0
sg21
I0
sg22
I0
sg23
I0
sg24
I0
sg17
I0
sg20
I0
sa(dp330
g3
I1
sg4
I0
sg10
I0
sg5
I0
sg7
I0
sg8
I0
sg11
I0
sg9
I0
sg6
I0
sg12
I0
sg13
I0
sg14
I0
sg24
I0
sg21
I0
sg2
I0
sg16
I0
sg18
I0
sg19
I0
sg15
I0
sg22
I0
sg23
I0
sg25
I0
sg17
I0
sg20
I0
sa(dp331
g3
I0
sg4
I0
sg5
I0
sg6
I0
sg7
I0
sg8
I1
sg9
I0
sg10
I0
sg11
I0
sg12
I0
sg13
I0
sg14
I0
sg15
I0
sg2
I0
sg16
I0
sg18
I0
sg19
I0
sg20
I0
sg21
I0
sg22
I0
sg23
I0
sg24
I0
sg17
I0
sg25
I0
sa(dp332
g3
I0
sg4
I0
sg10
I0
sg5
I0
sg7
I0
sg8
I0
sg11
I0
sg9
I0
sg6
I0
sg12
I1
sg13
I0
sg14
I0
sg25
I0
sg21
I0
sg2
I0
sg16
I0
sg18
I0
sg19
I0
sg15
I0
sg22
I0
sg23
I0
sg24
I0
sg17
I0
sg20
I0
sa(dp333
g3
I0
sg4
I0
sg5
I0
sg6
I0
sg7
I0
sg8
I0
sg9
I0
sg10
I0
sg11
I0
sg12
I0
sg13
I0
sg14
I0
sg24
I0
sg15
I0
sg2
I1
sg16
I0
sg18
I0
sg19
I0
sg21
I0
sg22
I0
sg23
I0
sg25
I0
sg17
I0
sg20
I0
sa(dp334
g3
I0
sg4
I0
sg10
I0
sg5
I0
sg7
I0
sg8
I0
sg11
I1
sg9
I0
sg6
I0
sg12
I0
sg13
I0
sg14
I0
sg21
I0
sg2
I0
sg16
I0
sg18
I0
sg19
I0
sg20
I0
sg15
I0
sg22
I0
sg23
I0
sg24
I0
sg17
I0
sg25
I0
sa(dp335
g3
I0
sg4
I0
sg5
I0
sg6
I0
sg7
I0
sg8
I1
sg9
I0
sg10
I0
sg11
I0
sg12
I0
sg13
I0
sg14
I0
sg25
I0
sg15
I0
sg2
I0
sg16
I0
sg18
I0
sg19
I0
sg21
I0
sg22
I0
sg23
I0
sg24
I0
sg17
I0
sg20
I0
sa(dp336
g3
I0
sg4
I0
sg10
I0
sg5
I0
sg7
I0
sg8
I0
sg11
I0
sg9
I0
sg6
I0
sg12
I1
sg13
I0
sg14
I0
sg24
I0
sg21
I0
sg2
I0
sg16
I0
sg18
I0
sg19
I0
sg15
I0
sg22
I0
sg23
I0
sg25
I0
sg17
I0
sg20
I0
sa(dp337
g3
I0
sg4
I0
sg5
I0
sg6
I0
sg7
I0
sg8
I1
sg9
I0
sg10
I0
sg11
I0
sg12
I0
sg13
I0
sg14
I0
sg15
I0
sg2
I0
sg16
I0
sg18
I0
sg19
I0
sg20
I0
sg21
I0
sg22
I0
sg23
I0
sg24
I0
sg17
I0
sg25
I0
sa(dp338
g3
I1
sg4
I0
sg10
I0
sg5
I0
sg7
I0
sg8
I0
sg11
I0
sg9
I0
sg6
I0
sg12
I0
sg13
I0
sg14
I0
sg25
I0
sg21
I0
sg2
I0
sg16
I0
sg18
I0
sg19
I0
sg15
I0
sg22
I0
sg23
I0
sg24
I0
sg17
I0
sg20
I0
sa(dp339
g3
I0
sg4
I0
sg5
I0
sg6
I0
sg7
I1
sg8
I0
sg9
I0
sg10
I0
sg11
I0
sg12
I0
sg13
I0
sg14
I0
sg24
I0
sg15
I0
sg2
I0
sg16
I0
sg18
I0
sg19
I0
sg21
I0
sg22
I0
sg23
I0
sg25
I0
sg17
I0
sg20
I0
sa(dp340
g3
I0
sg4
I0
sg10
I0
sg5
I0
sg7
I0
sg8
I0
sg11
I0
sg9
I0
sg6
I0
sg12
I0
sg13
I0
sg14
I0
sg21
I0
sg2
I0
sg16
I1
sg18
I0
sg19
I0
sg20
I0
sg15
I0
sg22
I0
sg23
I0
sg24
I0
sg17
I0
sg25
I0
sa(dp341
g3
I0
sg4
I0
sg5
I0
sg6
I0
sg7
I0
sg8
I0
sg9
I0
sg10
I0
sg11
I0
sg12
I0
sg13
I0
sg14
I0
sg25
I0
sg15
I0
sg2
I1
sg16
I0
sg18
I0
sg19
I0
sg21
I0
sg22
I0
sg23
I0
sg24
I0
sg17
I0
sg20
I0
sa(dp342
g3
I0
sg4
I0
sg10
I0
sg5
I0
sg7
I0
sg8
I0
sg11
I0
sg9
I0
sg6
I0
sg12
I0
sg13
I0
sg14
I1
sg24
I0
sg21
I0
sg2
I0
sg16
I0
sg18
I0
sg19
I0
sg15
I0
sg22
I0
sg23
I0
sg25
I0
sg17
I0
sg20
I0
sa(dp343
g3
I0
sg4
I0
sg5
I0
sg6
I0
sg7
I0
sg8
I1
sg9
I0
sg10
I0
sg11
I0
sg12
I0
sg13
I0
sg14
I0
sg15
I0
sg2
I0
sg16
I0
sg18
I0
sg19
I0
sg20
I0
sg21
I0
sg22
I0
sg23
I0
sg24
I0
sg17
I0
sg25
I0
sa(dp344
g3
I0
sg4
I0
sg10
I0
sg5
I0
sg7
I0
sg8
I1
sg11
I0
sg9
I0
sg6
I0
sg12
I0
sg13
I0
sg14
I0
sg25
I0
sg21
I0
sg2
I0
sg16
I0
sg18
I0
sg19
I0
sg15
I0
sg22
I0
sg23
I0
sg24
I0
sg17
I0
sg20
I0
sa(dp345
g3
I0
sg4
I0
sg5
I0
sg6
I0
sg7
I0
sg8
I0
sg9
I0
sg10
I0
sg11
I0
sg12
I0
sg13
I0
sg14
I0
sg24
I0
sg15
I0
sg2
I0
sg16
I0
sg18
I0
sg19
I1
sg21
I0
sg22
I0
sg23
I0
sg25
I0
sg17
I0
sg20
I0
sa(dp346
g3
I0
sg4
I0
sg10
I0
sg5
I0
sg7
I0
sg8
I0
sg11
I0
sg9
I0
sg6
I0
sg12
I0
sg13
I0
sg14
I0
sg21
I0
sg2
I0
sg16
I0
sg18
I0
sg19
I0
sg20
I0
sg15
I1
sg22
I0
sg23
I0
sg24
I0
sg17
I0
sg25
I0
sa(dp347
g3
I0
sg4
I0
sg5
I0
sg6
I0
sg7
I1
sg8
I0
sg9
I0
sg10
I0
sg11
I0
sg12
I0
sg13
I0
sg14
I0
sg25
I0
sg15
I0
sg2
I0
sg16
I0
sg18
I0
sg19
I0
sg21
I0
sg22
I0
sg23
I0
sg24
I0
sg17
I0
sg20
I0
sa(dp348
g3
I0
sg4
I0
sg10
I0
sg5
I0
sg7
I1
sg8
I0
sg11
I0
sg9
I0
sg6
I0
sg12
I0
sg13
I0
sg14
I0
sg24
I0
sg21
I0
sg2
I0
sg16
I0
sg18
I0
sg19
I0
sg15
I0
sg22
I0
sg23
I0
sg25
I0
sg17
I0
sg20
I0
sa(dp349
g3
I0
sg4
I0
sg5
I0
sg6
I0
sg7
I0
sg8
I0
sg9
I0
sg10
I0
sg11
I0
sg12
I0
sg13
I0
sg14
I0
sg15
I0
sg2
I0
sg16
I0
sg18
I0
sg19
I0
sg20
I0
sg21
I0
sg22
I0
sg23
I0
sg24
I1
sg17
I0
sg25
I0
sa(dp350
g3
I0
sg4
I0
sg10
I0
sg5
I0
sg7
I0
sg8
I0
sg11
I0
sg9
I0
sg6
I0
sg12
I0
sg13
I0
sg14
I0
sg25
I0
sg21
I0
sg2
I0
sg16
I0
sg18
I0
sg19
I0
sg15
I0
sg22
I0
sg23
I1
sg24
I0
sg17
I0
sg20
I0
sa(dp351
g3
I0
sg4
I0
sg5
I0
sg6
I1
sg7
I0
sg8
I0
sg9
I0
sg10
I0
sg11
I0
sg12
I0
sg13
I0
sg14
I0
sg24
I0
sg15
I0
sg2
I0
sg16
I0
sg18
I0
sg19
I0
sg21
I0
sg22
I0
sg23
I0
sg25
I0
sg17
I0
sg20
I0
sa(dp352
g3
I0
sg4
I0
sg10
I0
sg5
I0
sg7
I0
sg8
I1
sg11
I0
sg9
I0
sg6
I0
sg12
I0
sg13
I0
sg14
I0
sg21
I0
sg2
I0
sg16
I0
sg18
I0
sg19
I0
sg20
I0
sg15
I0
sg22
I0
sg23
I0
sg24
I0
sg17
I0
sg25
I0
sa(dp353
g3
I0
sg4
I0
sg5
I0
sg6
I0
sg7
I1
sg8
I0
sg9
I0
sg10
I0
sg11
I0
sg12
I0
sg13
I0
sg14
I0
sg25
I0
sg15
I0
sg2
I0
sg16
I0
sg18
I0
sg19
I0
sg21
I0
sg22
I0
sg23
I0
sg24
I0
sg17
I0
sg20
I0
sa(dp354
g3
I0
sg4
I0
sg10
I0
sg5
I0
sg7
I0
sg8
I0
sg11
I0
sg9
I0
sg6
I0
sg12
I0
sg13
I0
sg14
I0
sg24
I0
sg21
I0
sg2
I0
sg16
I0
sg18
I0
sg19
I0
sg15
I0
sg22
I0
sg23
I0
sg25
I1
sg17
I0
sg20
I0
sa(dp355
g3
I0
sg4
I0
sg5
I0
sg6
I0
sg7
I0
sg8
I0
sg9
I0
sg10
I0
sg11
I0
sg12
I0
sg13
I0
sg14
I0
sg15
I0
sg2
I0
sg16
I0
sg18
I0
sg19
I0
sg20
I0
sg21
I0
sg22
I0
sg23
I1
sg24
I0
sg17
I0
sg25
I0
sa(dp356
g3
I0
sg4
I0
sg10
I0
sg5
I0
sg7
I0
sg8
I1
sg11
I0
sg9
I0
sg6
I0
sg12
I0
sg13
I0
sg14
I0
sg25
I0
sg21
I0
sg2
I0
sg16
I0
sg18
I0
sg19
I0
sg15
I0
sg22
I0
sg23
I0
sg24
I0
sg17
I0
sg20
I0
sa(dp357
g3
I0
sg4
I0
sg5
I0
sg6
I0
sg7
I0
sg8
I0
sg9
I0
sg10
I0
sg11
I0
sg12
I0
sg13
I0
sg14
I1
sg24
I0
sg15
I0
sg2
I0
sg16
I0
sg18
I0
sg19
I0
sg21
I0
sg22
I0
sg23
I0
sg25
I0
sg17
I0
sg20
I0
sa(dp358
g3
I0
sg4
I0
sg10
I0
sg5
I0
sg7
I0
sg8
I1
sg11
I0
sg9
I0
sg6
I0
sg12
I0
sg13
I0
sg14
I0
sg21
I0
sg2
I0
sg16
I0
sg18
I0
sg19
I0
sg20
I0
sg15
I0
sg22
I0
sg23
I0
sg24
I0
sg17
I0
sg25
I0
sa(dp359
g3
I0
sg4
I0
sg5
I0
sg6
I0
sg7
I1
sg8
I0
sg9
I0
sg10
I0
sg11
I0
sg12
I0
sg13
I0
sg14
I0
sg25
I0
sg15
I0
sg2
I0
sg16
I0
sg18
I0
sg19
I0
sg21
I0
sg22
I0
sg23
I0
sg24
I0
sg17
I0
sg20
I0
sa(dp360
g3
I0
sg4
I0
sg10
I0
sg5
I0
sg7
I0
sg8
I1
sg11
I0
sg9
I0
sg6
I0
sg12
I0
sg13
I0
sg14
I0
sg24
I0
sg21
I0
sg2
I0
sg16
I0
sg18
I0
sg19
I0
sg15
I0
sg22
I0
sg23
I0
sg25
I0
sg17
I0
sg20
I0
sa(dp361
g3
I0
sg4
I0
sg5
I0
sg6
I0
sg7
I0
sg8
I0
sg9
I0
sg10
I0
sg11
I0
sg12
I0
sg13
I0
sg14
I0
sg15
I0
sg2
I0
sg16
I0
sg18
I0
sg19
I0
sg20
I0
sg21
I0
sg22
I0
sg23
I1
sg24
I0
sg17
I0
sg25
I0
sa(dp362
g3
I0
sg4
I0
sg10
I0
sg5
I0
sg7
I0
sg8
I0
sg11
I0
sg9
I0
sg6
I0
sg12
I0
sg13
I0
sg14
I0
sg25
I0
sg21
I0
sg2
I0
sg16
I1
sg18
I0
sg19
I0
sg15
I0
sg22
I0
sg23
I0
sg24
I0
sg17
I0
sg20
I0
sa(dp363
g3
I0
sg4
I0
sg5
I0
sg6
I0
sg7
I0
sg8
I1
sg9
I0
sg10
I0
sg11
I0
sg12
I0
sg13
I0
sg14
I0
sg24
I0
sg15
I0
sg2
I0
sg16
I0
sg18
I0
sg19
I0
sg21
I0
sg22
I0
sg23
I0
sg25
I0
sg17
I0
sg20
I0
sa(dp364
g3
I0
sg4
I0
sg10
I0
sg5
I0
sg7
I0
sg8
I1
sg11
I0
sg9
I0
sg6
I0
sg12
I0
sg13
I0
sg14
I0
sg21
I0
sg2
I0
sg16
I0
sg18
I0
sg19
I0
sg20
I0
sg15
I0
sg22
I0
sg23
I0
sg24
I0
sg17
I0
sg25
I0
sa(dp365
g3
I0
sg4
I0
sg5
I0
sg6
I0
sg7
I0
sg8
I1
sg9
I0
sg10
I0
sg11
I0
sg12
I0
sg13
I0
sg14
I0
sg25
I0
sg15
I0
sg2
I0
sg16
I0
sg18
I0
sg19
I0
sg21
I0
sg22
I0
sg23
I0
sg24
I0
sg17
I0
sg20
I0
sa(dp366
g3
I0
sg4
I0
sg10
I0
sg5
I0
sg7
I0
sg8
I0
sg11
I0
sg9
I0
sg6
I0
sg12
I0
sg13
I0
sg14
I0
sg24
I0
sg21
I0
sg2
I0
sg16
I0
sg18
I0
sg19
I1
sg15
I0
sg22
I0
sg23
I0
sg25
I0
sg17
I0
sg20
I0
sa(dp367
g3
I0
sg4
I0
sg5
I0
sg6
I0
sg7
I1
sg8
I0
sg9
I0
sg10
I0
sg11
I0
sg12
I0
sg13
I0
sg14
I0
sg15
I0
sg2
I0
sg16
I0
sg18
I0
sg19
I0
sg20
I0
sg21
I0
sg22
I0
sg23
I0
sg24
I0
sg17
I0
sg25
I0
sa(dp368
g3
I0
sg4
I0
sg10
I0
sg5
I0
sg7
I0
sg8
I0
sg11
I0
sg9
I0
sg6
I0
sg12
I0
sg13
I0
sg14
I0
sg25
I0
sg21
I0
sg2
I0
sg16
I0
sg18
I0
sg19
I0
sg15
I1
sg22
I0
sg23
I0
sg24
I0
sg17
I0
sg20
I0
sa(dp369
g3
I0
sg4
I0
sg5
I0
sg6
I0
sg7
I0
sg8
I1
sg9
I0
sg10
I0
sg11
I0
sg12
I0
sg13
I0
sg14
I0
sg24
I0
sg15
I0
sg2
I0
sg16
I0
sg18
I0
sg19
I0
sg21
I0
sg22
I0
sg23
I0
sg25
I0
sg17
I0
sg20
I0
sa(dp370
g3
I0
sg4
I0
sg10
I0
sg5
I0
sg7
I0
sg8
I1
sg11
I0
sg9
I0
sg6
I0
sg12
I0
sg13
I0
sg14
I0
sg21
I0
sg2
I0
sg16
I0
sg18
I0
sg19
I0
sg20
I0
sg15
I0
sg22
I0
sg23
I0
sg24
I0
sg17
I0
sg25
I0
sa(dp371
g3
I0
sg4
I0
sg5
I0
sg6
I0
sg7
I0
sg8
I0
sg9
I0
sg10
I0
sg11
I1
sg12
I0
sg13
I0
sg14
I0
sg25
I0
sg15
I0
sg2
I0
sg16
I0
sg18
I0
sg19
I0
sg21
I0
sg22
I0
sg23
I0
sg24
I0
sg17
I0
sg20
I0
sa(dp372
g3
I0
sg4
I0
sg10
I0
sg5
I0
sg7
I1
sg8
I0
sg11
I0
sg9
I0
sg6
I0
sg12
I0
sg13
I0
sg14
I0
sg24
I0
sg21
I0
sg2
I0
sg16
I0
sg18
I0
sg19
I0
sg15
I0
sg22
I0
sg23
I0
sg25
I0
sg17
I0
sg20
I0
sa(dp373
g3
I0
sg4
I0
sg5
I0
sg6
I1
sg7
I0
sg8
I0
sg9
I0
sg10
I0
sg11
I0
sg12
I0
sg13
I0
sg14
I0
sg15
I0
sg2
I0
sg16
I0
sg18
I0
sg19
I0
sg20
I0
sg21
I0
sg22
I0
sg23
I0
sg24
I0
sg17
I0
sg25
I0
sa(dp374
g3
I0
sg4
I0
sg10
I0
sg5
I0
sg7
I0
sg8
I1
sg11
I0
sg9
I0
sg6
I0
sg12
I0
sg13
I0
sg14
I0
sg25
I0
sg21
I0
sg2
I0
sg16
I0
sg18
I0
sg19
I0
sg15
I0
sg22
I0
sg23
I0
sg24
I0
sg17
I0
sg20
I0
sa(dp375
g3
I0
sg4
I0
sg5
I0
sg6
I0
sg7
I0
sg8
I1
sg9
I0
sg10
I0
sg11
I0
sg12
I0
sg13
I0
sg14
I0
sg24
I0
sg15
I0
sg2
I0
sg16
I0
sg18
I0
sg19
I0
sg21
I0
sg22
I0
sg23
I0
sg25
I0
sg17
I0
sg20
I0
sa(dp376
g3
I0
sg4
I0
sg10
I0
sg5
I0
sg7
I0
sg8
I1
sg11
I0
sg9
I0
sg6
I0
sg12
I0
sg13
I0
sg14
I0
sg21
I0
sg2
I0
sg16
I0
sg18
I0
sg19
I0
sg20
I0
sg15
I0
sg22
I0
sg23
I0
sg24
I0
sg17
I0
sg25
I0
sa(dp377
g3
I0
sg4
I0
sg5
I0
sg6
I0
sg7
I0
sg8
I1
sg9
I0
sg10
I0
sg11
I0
sg12
I0
sg13
I0
sg14
I0
sg25
I0
sg15
I0
sg2
I0
sg16
I0
sg18
I0
sg19
I0
sg21
I0
sg22
I0
sg23
I0
sg24
I0
sg17
I0
sg20
I0
sa(dp378
g3
I0
sg4
I0
sg10
I0
sg5
I0
sg7
I0
sg8
I1
sg11
I0
sg9
I0
sg6
I0
sg12
I0
sg13
I0
sg14
I0
sg24
I0
sg21
I0
sg2
I0
sg16
I0
sg18
I0
sg19
I0
sg15
I0
sg22
I0
sg23
I0
sg25
I0
sg17
I0
sg20
I0
sa(dp379
g3
I0
sg4
I0
sg5
I0
sg6
I0
sg7
I0
sg8
I1
sg9
I0
sg10
I0
sg11
I0
sg12
I0
sg13
I0
sg14
I0
sg15
I0
sg2
I0
sg16
I0
sg18
I0
sg19
I0
sg20
I0
sg21
I0
sg22
I0
sg23
I0
sg24
I0
sg17
I0
sg25
I0
sa(dp380
g3
I0
sg4
I0
sg10
I0
sg5
I0
sg7
I1
sg8
I0
sg11
I0
sg9
I0
sg6
I0
sg12
I0
sg13
I0
sg14
I0
sg25
I0
sg21
I0
sg2
I0
sg16
I0
sg18
I0
sg19
I0
sg15
I0
sg22
I0
sg23
I0
sg24
I0
sg17
I0
sg20
I0
sa(dp381
g3
I0
sg4
I0
sg5
I0
sg6
I0
sg7
I0
sg8
I0
sg9
I0
sg10
I0
sg11
I0
sg12
I1
sg13
I0
sg14
I0
sg24
I0
sg15
I0
sg2
I0
sg16
I0
sg18
I0
sg19
I0
sg21
I0
sg22
I0
sg23
I0
sg25
I0
sg17
I0
sg20
I0
sa(dp382
g3
I0
sg4
I0
sg10
I0
sg5
I0
sg7
I0
sg8
I0
sg11
I0
sg9
I0
sg6
I1
sg12
I0
sg13
I0
sg14
I0
sg21
I0
sg2
I0
sg16
I0
sg18
I0
sg19
I0
sg20
I0
sg15
I0
sg22
I0
sg23
I0
sg24
I0
sg17
I0
sg25
I0
sa(dp383
g3
I0
sg4
I0
sg5
I0
sg6
I0
sg7
I0
sg8
I0
sg9
I0
sg10
I0
sg11
I0
sg12
I0
sg13
I0
sg14
I0
sg25
I0
sg15
I0
sg2
I0
sg16
I0
sg18
I0
sg19
I0
sg21
I0
sg22
I0
sg23
I1
sg24
I0
sg17
I0
sg20
I0
sa(dp384
g3
I0
sg4
I0
sg10
I0
sg5
I0
sg7
I1
sg8
I0
sg11
I0
sg9
I0
sg6
I0
sg12
I0
sg13
I0
sg14
I0
sg24
I0
sg21
I0
sg2
I0
sg16
I0
sg18
I0
sg19
I0
sg15
I0
sg22
I0
sg23
I0
sg25
I0
sg17
I0
sg20
I0
sa(dp385
g3
I0
sg4
I0
sg5
I0
sg6
I0
sg7
I0
sg8
I1
sg9
I0
sg10
I0
sg11
I0
sg12
I0
sg13
I0
sg14
I0
sg15
I0
sg2
I0
sg16
I0
sg18
I0
sg19
I0
sg20
I0
sg21
I0
sg22
I0
sg23
I0
sg24
I0
sg17
I0
sg25
I0
sa(dp386
g3
I0
sg4
I0
sg10
I0
sg5
I0
sg7
I0
sg8
I0
sg11
I1
sg9
I0
sg6
I0
sg12
I0
sg13
I0
sg14
I0
sg25
I0
sg21
I0
sg2
I0
sg16
I0
sg18
I0
sg19
I0
sg15
I0
sg22
I0
sg23
I0
sg24
I0
sg17
I0
sg20
I0
sa(dp387
g3
I0
sg4
I0
sg5
I0
sg6
I0
sg7
I0
sg8
I0
sg9
I0
sg10
I0
sg11
I0
sg12
I0
sg13
I0
sg14
I0
sg24
I0
sg15
I0
sg2
I1
sg16
I0
sg18
I0
sg19
I0
sg21
I0
sg22
I0
sg23
I0
sg25
I0
sg17
I0
sg20
I0
sa(dp388
g3
I0
sg4
I0
sg10
I0
sg5
I0
sg7
I0
sg8
I0
sg11
I0
sg9
I0
sg6
I0
sg12
I1
sg13
I0
sg14
I0
sg21
I0
sg2
I0
sg16
I0
sg18
I0
sg19
I0
sg20
I0
sg15
I0
sg22
I0
sg23
I0
sg24
I0
sg17
I0
sg25
I0
sa(dp389
g3
I0
sg4
I1
sg5
I0
sg6
I0
sg7
I0
sg8
I0
sg9
I0
sg10
I0
sg11
I0
sg12
I0
sg13
I0
sg14
I0
sg25
I0
sg15
I0
sg2
I0
sg16
I0
sg18
I0
sg19
I0
sg21
I0
sg22
I0
sg23
I0
sg24
I0
sg17
I0
sg20
I0
sa(dp390
g3
I0
sg4
I0
sg10
I0
sg5
I0
sg7
I0
sg8
I0
sg11
I0
sg9
I0
sg6
I0
sg12
I0
sg13
I0
sg14
I0
sg24
I0
sg21
I0
sg2
I0
sg16
I0
sg18
I0
sg19
I1
sg15
I0
sg22
I0
sg23
I0
sg25
I0
sg17
I0
sg20
I0
sa(dp391
g3
I0
sg4
I0
sg5
I0
sg6
I0
sg7
I0
sg8
I0
sg9
I0
sg10
I1
sg11
I0
sg12
I0
sg13
I0
sg14
I0
sg15
I0
sg2
I0
sg16
I0
sg18
I0
sg19
I0
sg20
I0
sg21
I0
sg22
I0
sg23
I0
sg24
I0
sg17
I0
sg25
I0
sa(dp392
g3
I0
sg4
I0
sg10
I0
sg5
I0
sg7
I0
sg8
I1
sg11
I0
sg9
I0
sg6
I0
sg12
I0
sg13
I0
sg14
I0
sg25
I0
sg21
I0
sg2
I0
sg16
I0
sg18
I0
sg19
I0
sg15
I0
sg22
I0
sg23
I0
sg24
I0
sg17
I0
sg20
I0
sa(dp393
g3
I0
sg4
I0
sg5
I0
sg6
I0
sg7
I1
sg8
I0
sg9
I0
sg10
I0
sg11
I0
sg12
I0
sg13
I0
sg14
I0
sg24
I0
sg15
I0
sg2
I0
sg16
I0
sg18
I0
sg19
I0
sg21
I0
sg22
I0
sg23
I0
sg25
I0
sg17
I0
sg20
I0
sa(dp394
g3
I0
sg4
I0
sg10
I0
sg5
I0
sg7
I0
sg8
I0
sg11
I0
sg9
I0
sg6
I0
sg12
I1
sg13
I0
sg14
I0
sg21
I0
sg2
I0
sg16
I0
sg18
I0
sg19
I0
sg20
I0
sg15
I0
sg22
I0
sg23
I0
sg24
I0
sg17
I0
sg25
I0
sa(dp395
g3
I0
sg4
I0
sg5
I0
sg6
I0
sg7
I1
sg8
I0
sg9
I0
sg10
I0
sg11
I0
sg12
I0
sg13
I0
sg14
I0
sg25
I0
sg15
I0
sg2
I0
sg16
I0
sg18
I0
sg19
I0
sg21
I0
sg22
I0
sg23
I0
sg24
I0
sg17
I0
sg20
I0
sa(dp396
g3
I0
sg4
I0
sg10
I0
sg5
I0
sg7
I0
sg8
I1
sg11
I0
sg9
I0
sg6
I0
sg12
I0
sg13
I0
sg14
I0
sg24
I0
sg21
I0
sg2
I0
sg16
I0
sg18
I0
sg19
I0
sg15
I0
sg22
I0
sg23
I0
sg25
I0
sg17
I0
sg20
I0
sa(dp397
g3
I0
sg4
I0
sg5
I0
sg6
I0
sg7
I0
sg8
I0
sg9
I0
sg10
I0
sg11
I0
sg12
I0
sg13
I0
sg14
I0
sg15
I0
sg2
I0
sg16
I0
sg18
I0
sg19
I0
sg20
I0
sg21
I0
sg22
I1
sg23
I0
sg24
I0
sg17
I0
sg25
I0
sa(dp398
g3
I0
sg4
I0
sg10
I0
sg5
I0
sg7
I0
sg8
I1
sg11
I0
sg9
I0
sg6
I0
sg12
I0
sg13
I0
sg14
I0
sg25
I0
sg21
I0
sg2
I0
sg16
I0
sg18
I0
sg19
I0
sg15
I0
sg22
I0
sg23
I0
sg24
I0
sg17
I0
sg20
I0
sa(dp399
g3
I0
sg4
I0
sg5
I0
sg6
I0
sg7
I0
sg8
I0
sg9
I0
sg10
I1
sg11
I0
sg12
I0
sg13
I0
sg14
I0
sg24
I0
sg15
I0
sg2
I0
sg16
I0
sg18
I0
sg19
I0
sg21
I0
sg22
I0
sg23
I0
sg25
I0
sg17
I0
sg20
I0
sa(dp400
g3
I0
sg4
I0
sg10
I0
sg5
I0
sg7
I0
sg8
I1
sg11
I0
sg9
I0
sg6
I0
sg12
I0
sg13
I0
sg14
I0
sg21
I0
sg2
I0
sg16
I0
sg18
I0
sg19
I0
sg20
I0
sg15
I0
sg22
I0
sg23
I0
sg24
I0
sg17
I0
sg25
I0
sa(dp401
g3
I0
sg4
I0
sg5
I0
sg6
I0
sg7
I0
sg8
I0
sg9
I0
sg10
I0
sg11
I0
sg12
I1
sg13
I0
sg14
I0
sg25
I0
sg15
I0
sg2
I0
sg16
I0
sg18
I0
sg19
I0
sg21
I0
sg22
I0
sg23
I0
sg24
I0
sg17
I0
sg20
I0
sa(dp402
g3
I0
sg4
I0
sg10
I0
sg5
I0
sg7
I0
sg8
I1
sg11
I0
sg9
I0
sg6
I0
sg12
I0
sg13
I0
sg14
I0
sg24
I0
sg21
I0
sg2
I0
sg16
I0
sg18
I0
sg19
I0
sg15
I0
sg22
I0
sg23
I0
sg25
I0
sg17
I0
sg20
I0
sa(dp403
g3
I0
sg4
I0
sg5
I0
sg6
I0
sg7
I1
sg8
I0
sg9
I0
sg10
I0
sg11
I0
sg12
I0
sg13
I0
sg14
I0
sg15
I0
sg2
I0
sg16
I0
sg18
I0
sg19
I0
sg20
I0
sg21
I0
sg22
I0
sg23
I0
sg24
I0
sg17
I0
sg25
I0
sa(dp404
g3
I0
sg4
I0
sg10
I1
sg5
I0
sg7
I0
sg8
I0
sg11
I0
sg9
I0
sg6
I0
sg12
I0
sg13
I0
sg14
I0
sg25
I0
sg21
I0
sg2
I0
sg16
I0
sg18
I0
sg19
I0
sg15
I0
sg22
I0
sg23
I0
sg24
I0
sg17
I0
sg20
I0
sa(dp405
g3
I0
sg4
I0
sg5
I0
sg6
I0
sg7
I0
sg8
I0
sg9
I0
sg10
I0
sg11
I0
sg12
I0
sg13
I0
sg14
I0
sg24
I0
sg15
I0
sg2
I0
sg16
I0
sg18
I0
sg19
I0
sg21
I1
sg22
I0
sg23
I0
sg25
I0
sg17
I0
sg20
I0
sa(dp406
g3
I0
sg4
I0
sg10
I0
sg5
I0
sg7
I0
sg8
I1
sg11
I0
sg9
I0
sg6
I0
sg12
I0
sg13
I0
sg14
I0
sg21
I0
sg2
I0
sg16
I0
sg18
I0
sg19
I0
sg20
I0
sg15
I0
sg22
I0
sg23
I0
sg24
I0
sg17
I0
sg25
I0
sa(dp407
g3
I0
sg4
I0
sg5
I0
sg6
I0
sg7
I0
sg8
I1
sg9
I0
sg10
I0
sg11
I0
sg12
I0
sg13
I0
sg14
I0
sg25
I0
sg15
I0
sg2
I0
sg16
I0
sg18
I0
sg19
I0
sg21
I0
sg22
I0
sg23
I0
sg24
I0
sg17
I0
sg20
I0
sa(dp408
g3
I0
sg4
I0
sg10
I0
sg5
I0
sg7
I1
sg8
I0
sg11
I0
sg9
I0
sg6
I0
sg12
I0
sg13
I0
sg14
I0
sg24
I0
sg21
I0
sg2
I0
sg16
I0
sg18
I0
sg19
I0
sg15
I0
sg22
I0
sg23
I0
sg25
I0
sg17
I0
sg20
I0
sa(dp409
g3
I0
sg4
I0
sg5
I0
sg6
I0
sg7
I0
sg8
I0
sg9
I0
sg10
I0
sg11
I0
sg12
I0
sg13
I0
sg14
I1
sg15
I0
sg2
I0
sg16
I0
sg18
I0
sg19
I0
sg20
I0
sg21
I0
sg22
I0
sg23
I0
sg24
I0
sg17
I0
sg25
I0
sa(dp410
g3
I0
sg4
I0
sg10
I0
sg5
I0
sg7
I0
sg8
I0
sg11
I0
sg9
I0
sg6
I0
sg12
I0
sg13
I0
sg14
I1
sg25
I0
sg21
I0
sg2
I0
sg16
I0
sg18
I0
sg19
I0
sg15
I0
sg22
I0
sg23
I0
sg24
I0
sg17
I0
sg20
I0
sa(dp411
g3
I0
sg4
I0
sg5
I0
sg6
I0
sg7
I0
sg8
I1
sg9
I0
sg10
I0
sg11
I0
sg12
I0
sg13
I0
sg14
I0
sg24
I0
sg15
I0
sg2
I0
sg16
I0
sg18
I0
sg19
I0
sg21
I0
sg22
I0
sg23
I0
sg25
I0
sg17
I0
sg20
I0
sa(dp412
g3
I0
sg4
I0
sg10
I0
sg5
I0
sg7
I1
sg8
I0
sg11
I0
sg9
I0
sg6
I0
sg12
I0
sg13
I0
sg14
I0
sg21
I0
sg2
I0
sg16
I0
sg18
I0
sg19
I0
sg20
I0
sg15
I0
sg22
I0
sg23
I0
sg24
I0
sg17
I0
sg25
I0
sa(dp413
g3
I0
sg4
I0
sg5
I0
sg6
I0
sg7
I0
sg8
I1
sg9
I0
sg10
I0
sg11
I0
sg12
I0
sg13
I0
sg14
I0
sg25
I0
sg15
I0
sg2
I0
sg16
I0
sg18
I0
sg19
I0
sg21
I0
sg22
I0
sg23
I0
sg24
I0
sg17
I0
sg20
I0
sa(dp414
g3
I0
sg4
I0
sg10
I0
sg5
I0
sg7
I0
sg8
I0
sg11
I1
sg9
I0
sg6
I0
sg12
I0
sg13
I0
sg14
I0
sg24
I0
sg21
I0
sg2
I0
sg16
I0
sg18
I0
sg19
I0
sg15
I0
sg22
I0
sg23
I0
sg25
I0
sg17
I0
sg20
I0
sa(dp415
g3
I0
sg4
I0
sg5
I0
sg6
I0
sg7
I0
sg8
I0
sg9
I0
sg10
I0
sg11
I0
sg12
I0
sg13
I0
sg14
I0
sg15
I0
sg2
I0
sg16
I0
sg18
I0
sg19
I0
sg20
I0
sg21
I0
sg22
I0
sg23
I1
sg24
I0
sg17
I0
sg25
I0
sa(dp416
g3
I0
sg4
I0
sg10
I0
sg5
I0
sg7
I1
sg8
I0
sg11
I0
sg9
I0
sg6
I0
sg12
I0
sg13
I0
sg14
I0
sg25
I0
sg21
I0
sg2
I0
sg16
I0
sg18
I0
sg19
I0
sg15
I0
sg22
I0
sg23
I0
sg24
I0
sg17
I0
sg20
I0
sa(dp417
g3
I0
sg4
I0
sg5
I0
sg6
I0
sg7
I0
sg8
I1
sg9
I0
sg10
I0
sg11
I0
sg12
I0
sg13
I0
sg14
I0
sg24
I0
sg15
I0
sg2
I0
sg16
I0
sg18
I0
sg19
I0
sg21
I0
sg22
I0
sg23
I0
sg25
I0
sg17
I0
sg20
I0
sa(dp418
g3
I1
sg4
I0
sg10
I0
sg5
I0
sg7
I0
sg8
I0
sg11
I0
sg9
I0
sg6
I0
sg12
I0
sg13
I0
sg14
I0
sg21
I0
sg2
I0
sg16
I0
sg18
I0
sg19
I0
sg20
I0
sg15
I0
sg22
I0
sg23
I0
sg24
I0
sg17
I0
sg25
I0
sa(dp419
g3
I0
sg4
I0
sg5
I0
sg6
I0
sg7
I0
sg8
I0
sg9
I1
sg10
I0
sg11
I0
sg12
I0
sg13
I0
sg14
I0
sg25
I0
sg15
I0
sg2
I0
sg16
I0
sg18
I0
sg19
I0
sg21
I0
sg22
I0
sg23
I0
sg24
I0
sg17
I0
sg20
I0
sa(dp420
g3
I0
sg4
I0
sg10
I0
sg5
I0
sg7
I0
sg8
I1
sg11
I0
sg9
I0
sg6
I0
sg12
I0
sg13
I0
sg14
I0
sg24
I0
sg21
I0
sg2
I0
sg16
I0
sg18
I0
sg19
I0
sg15
I0
sg22
I0
sg23
I0
sg25
I0
sg17
I0
sg20
I0
sa(dp421
g3
I0
sg4
I0
sg5
I0
sg6
I0
sg7
I0
sg8
I0
sg9
I0
sg10
I0
sg11
I0
sg12
I1
sg13
I0
sg14
I0
sg15
I0
sg2
I0
sg16
I0
sg18
I0
sg19
I0
sg20
I0
sg21
I0
sg22
I0
sg23
I0
sg24
I0
sg17
I0
sg25
I0
sa(dp422
g3
I0
sg4
I0
sg10
I0
sg5
I0
sg7
I0
sg8
I0
sg11
I0
sg9
I0
sg6
I0
sg12
I1
sg13
I0
sg14
I0
sg25
I0
sg21
I0
sg2
I0
sg16
I0
sg18
I0
sg19
I0
sg15
I0
sg22
I0
sg23
I0
sg24
I0
sg17
I0
sg20
I0
sa(dp423
g3
I0
sg4
I0
sg5
I0
sg6
I1
sg7
I0
sg8
I0
sg9
I0
sg10
I0
sg11
I0
sg12
I0
sg13
I0
sg14
I0
sg24
I0
sg15
I0
sg2
I0
sg16
I0
sg18
I0
sg19
I0
sg21
I0
sg22
I0
sg23
I0
sg25
I0
sg17
I0
sg20
I0
sa(dp424
g3
I0
sg4
I0
sg10
I0
sg5
I0
sg7
I0
sg8
I0
sg11
I0
sg9
I0
sg6
I0
sg12
I0
sg13
I0
sg14
I0
sg21
I0
sg2
I0
sg16
I0
sg18
I0
sg19
I0
sg20
I0
sg15
I0
sg22
I0
sg23
I0
sg24
I0
sg17
I0
sg25
I1
sa(dp425
g3
I0
sg4
I0
sg5
I0
sg6
I0
sg7
I0
sg8
I1
sg9
I0
sg10
I0
sg11
I0
sg12
I0
sg13
I0
sg14
I0
sg25
I0
sg15
I0
sg2
I0
sg16
I0
sg18
I0
sg19
I0
sg21
I0
sg22
I0
sg23
I0
sg24
I0
sg17
I0
sg20
I0
sa(dp426
g3
I0
sg4
I0
sg10
I0
sg5
I0
sg7
I1
sg8
I0
sg11
I0
sg9
I0
sg6
I0
sg12
I0
sg13
I0
sg14
I0
sg24
I0
sg21
I0
sg2
I0
sg16
I0
sg18
I0
sg19
I0
sg15
I0
sg22
I0
sg23
I0
sg25
I0
sg17
I0
sg20
I0
sa(dp427
g3
I0
sg4
I1
sg5
I0
sg6
I0
sg7
I0
sg8
I0
sg9
I0
sg10
I0
sg11
I0
sg12
I0
sg13
I0
sg14
I0
sg15
I0
sg2
I0
sg16
I0
sg18
I0
sg19
I0
sg20
I0
sg21
I0
sg22
I0
sg23
I0
sg24
I0
sg17
I0
sg25
I0
sa(dp428
g3
I0
sg4
I0
sg10
I0
sg5
I0
sg7
I0
sg8
I0
sg11
I0
sg9
I0
sg6
I0
sg12
I0
sg13
I0
sg14
I0
sg25
I0
sg21
I0
sg2
I0
sg16
I0
sg18
I0
sg19
I0
sg15
I1
sg22
I0
sg23
I0
sg24
I0
sg17
I0
sg20
I0
sa(dp429
g3
I0
sg4
I0
sg5
I0
sg6
I0
sg7
I0
sg8
I0
sg9
I0
sg10
I0
sg11
I1
sg12
I0
sg13
I0
sg14
I0
sg24
I0
sg15
I0
sg2
I0
sg16
I0
sg18
I0
sg19
I0
sg21
I0
sg22
I0
sg23
I0
sg25
I0
sg17
I0
sg20
I0
sa(dp430
g3
I0
sg4
I0
sg10
I0
sg5
I0
sg7
I0
sg8
I0
sg11
I0
sg9
I0
sg6
I0
sg12
I0
sg13
I0
sg14
I0
sg21
I0
sg2
I0
sg16
I1
sg18
I0
sg19
I0
sg20
I0
sg15
I0
sg22
I0
sg23
I0
sg24
I0
sg17
I0
sg25
I0
sa(dp431
g3
I0
sg4
I0
sg5
I0
sg6
I0
sg7
I0
sg8
I0
sg9
I1
sg10
I0
sg11
I0
sg12
I0
sg13
I0
sg14
I0
sg25
I0
sg15
I0
sg2
I0
sg16
I0
sg18
I0
sg19
I0
sg21
I0
sg22
I0
sg23
I0
sg24
I0
sg17
I0
sg20
I0
sa(dp432
g3
I0
sg4
I0
sg10
I0
sg5
I0
sg7
I0
sg8
I0
sg11
I0
sg9
I0
sg6
I1
sg12
I0
sg13
I0
sg14
I0
sg24
I0
sg21
I0
sg2
I0
sg16
I0
sg18
I0
sg19
I0
sg15
I0
sg22
I0
sg23
I0
sg25
I0
sg17
I0
sg20
I0
sa(dp433
g3
I0
sg4
I0
sg5
I0
sg6
I0
sg7
I0
sg8
I0
sg9
I0
sg10
I0
sg11
I0
sg12
I0
sg13
I0
sg14
I0
sg15
I0
sg2
I0
sg16
I0
sg18
I0
sg19
I0
sg20
I0
sg21
I0
sg22
I0
sg23
I0
sg24
I1
sg17
I0
sg25
I0
sa(dp434
g3
I0
sg4
I0
sg10
I0
sg5
I0
sg7
I0
sg8
I1
sg11
I0
sg9
I0
sg6
I0
sg12
I0
sg13
I0
sg14
I0
sg25
I0
sg21
I0
sg2
I0
sg16
I0
sg18
I0
sg19
I0
sg15
I0
sg22
I0
sg23
I0
sg24
I0
sg17
I0
sg20
I0
sa(dp435
g3
I0
sg4
I0
sg5
I0
sg6
I0
sg7
I0
sg8
I0
sg9
I0
sg10
I0
sg11
I0
sg12
I1
sg13
I0
sg14
I0
sg24
I0
sg15
I0
sg2
I0
sg16
I0
sg18
I0
sg19
I0
sg21
I0
sg22
I0
sg23
I0
sg25
I0
sg17
I0
sg20
I0
sa(dp436
g3
I0
sg4
I0
sg10
I0
sg5
I0
sg7
I0
sg8
I1
sg11
I0
sg9
I0
sg6
I0
sg12
I0
sg13
I0
sg14
I0
sg21
I0
sg2
I0
sg16
I0
sg18
I0
sg19
I0
sg20
I0
sg15
I0
sg22
I0
sg23
I0
sg24
I0
sg17
I0
sg25
I0
sa(dp437
g3
I0
sg4
I0
sg5
I0
sg6
I0
sg7
I0
sg8
I0
sg9
I0
sg10
I0
sg11
I0
sg12
I1
sg13
I0
sg14
I0
sg25
I0
sg15
I0
sg2
I0
sg16
I0
sg18
I0
sg19
I0
sg21
I0
sg22
I0
sg23
I0
sg24
I0
sg17
I0
sg20
I0
sa(dp438
g3
I0
sg4
I0
sg10
I0
sg5
I0
sg7
I0
sg8
I0
sg11
I0
sg9
I0
sg6
I0
sg12
I0
sg13
I0
sg14
I0
sg24
I1
sg21
I0
sg2
I0
sg16
I0
sg18
I0
sg19
I0
sg15
I0
sg22
I0
sg23
I0
sg25
I0
sg17
I0
sg20
I0
sa(dp439
g3
I0
sg4
I0
sg5
I0
sg6
I0
sg7
I0
sg8
I0
sg9
I0
sg10
I0
sg11
I0
sg12
I1
sg13
I0
sg14
I0
sg15
I0
sg2
I0
sg16
I0
sg18
I0
sg19
I0
sg20
I0
sg21
I0
sg22
I0
sg23
I0
sg24
I0
sg17
I0
sg25
I0
sa(dp440
g3
I0
sg4
I0
sg10
I0
sg5
I0
sg7
I0
sg8
I1
sg11
I0
sg9
I0
sg6
I0
sg12
I0
sg13
I0
sg14
I0
sg25
I0
sg21
I0
sg2
I0
sg16
I0
sg18
I0
sg19
I0
sg15
I0
sg22
I0
sg23
I0
sg24
I0
sg17
I0
sg20
I0
sa(dp441
g3
I0
sg4
I0
sg5
I0
sg6
I0
sg7
I1
sg8
I0
sg9
I0
sg10
I0
sg11
I0
sg12
I0
sg13
I0
sg14
I0
sg24
I0
sg15
I0
sg2
I0
sg16
I0
sg18
I0
sg19
I0
sg21
I0
sg22
I0
sg23
I0
sg25
I0
sg17
I0
sg20
I0
sa(dp442
g3
I0
sg4
I0
sg10
I0
sg5
I0
sg7
I0
sg8
I0
sg11
I0
sg9
I0
sg6
I0
sg12
I0
sg13
I0
sg14
I0
sg21
I0
sg2
I0
sg16
I0
sg18
I0
sg19
I0
sg20
I0
sg15
I0
sg22
I0
sg23
I0
sg24
I1
sg17
I0
sg25
I0
sa(dp443
g3
I0
sg4
I0
sg5
I0
sg6
I0
sg7
I0
sg8
I0
sg9
I0
sg10
I0
sg11
I0
sg12
I0
sg13
I0
sg14
I1
sg25
I0
sg15
I0
sg2
I0
sg16
I0
sg18
I0
sg19
I0
sg21
I0
sg22
I0
sg23
I0
sg24
I0
sg17
I0
sg20
I0
sa(dp444
g3
I0
sg4
I0
sg10
I0
sg5
I0
sg7
I0
sg8
I1
sg11
I0
sg9
I0
sg6
I0
sg12
I0
sg13
I0
sg14
I0
sg24
I0
sg21
I0
sg2
I0
sg16
I0
sg18
I0
sg19
I0
sg15
I0
sg22
I0
sg23
I0
sg25
I0
sg17
I0
sg20
I0
sa(dp445
g3
I0
sg4
I0
sg5
I0
sg6
I0
sg7
I0
sg8
I0
sg9
I0
sg10
I0
sg11
I1
sg12
I0
sg13
I0
sg14
I0
sg15
I0
sg2
I0
sg16
I0
sg18
I0
sg19
I0
sg20
I0
sg21
I0
sg22
I0
sg23
I0
sg24
I0
sg17
I0
sg25
I0
sa(dp446
g3
I0
sg4
I0
sg10
I0
sg5
I0
sg7
I0
sg8
I1
sg11
I0
sg9
I0
sg6
I0
sg12
I0
sg13
I0
sg14
I0
sg25
I0
sg21
I0
sg2
I0
sg16
I0
sg18
I0
sg19
I0
sg15
I0
sg22
I0
sg23
I0
sg24
I0
sg17
I0
sg20
I0
sa(dp447
g3
I0
sg4
I0
sg5
I0
sg6
I0
sg7
I0
sg8
I0
sg9
I0
sg10
I0
sg11
I0
sg12
I0
sg13
I0
sg14
I0
sg24
I0
sg15
I1
sg2
I0
sg16
I0
sg18
I0
sg19
I0
sg21
I0
sg22
I0
sg23
I0
sg25
I0
sg17
I0
sg20
I0
sa(dp448
g3
I0
sg4
I0
sg10
I0
sg5
I0
sg7
I0
sg8
I1
sg11
I0
sg9
I0
sg6
I0
sg12
I0
sg13
I0
sg14
I0
sg21
I0
sg2
I0
sg16
I0
sg18
I0
sg19
I0
sg20
I0
sg15
I0
sg22
I0
sg23
I0
sg24
I0
sg17
I0
sg25
I0
sa(dp449
g3
I0
sg4
I0
sg5
I0
sg6
I0
sg7
I1
sg8
I0
sg9
I0
sg10
I0
sg11
I0
sg12
I0
sg13
I0
sg14
I0
sg25
I0
sg15
I0
sg2
I0
sg16
I0
sg18
I0
sg19
I0
sg21
I0
sg22
I0
sg23
I0
sg24
I0
sg17
I0
sg20
I0
sa(dp450
g3
I0
sg4
I0
sg10
I0
sg5
I0
sg7
I0
sg8
I0
sg11
I0
sg9
I0
sg6
I0
sg12
I0
sg13
I0
sg14
I0
sg24
I0
sg21
I0
sg2
I0
sg16
I0
sg18
I0
sg19
I0
sg15
I0
sg22
I1
sg23
I0
sg25
I0
sg17
I0
sg20
I0
sa(dp451
g3
I0
sg4
I0
sg5
I0
sg6
I0
sg7
I0
sg8
I0
sg9
I0
sg10
I0
sg11
I0
sg12
I0
sg13
I0
sg14
I0
sg15
I1
sg2
I0
sg16
I0
sg18
I0
sg19
I0
sg20
I0
sg21
I0
sg22
I0
sg23
I0
sg24
I0
sg17
I0
sg25
I0
sa(dp452
g3
I0
sg4
I0
sg10
I0
sg5
I0
sg7
I1
sg8
I0
sg11
I0
sg9
I0
sg6
I0
sg12
I0
sg13
I0
sg14
I0
sg25
I0
sg21
I0
sg2
I0
sg16
I0
sg18
I0
sg19
I0
sg15
I0
sg22
I0
sg23
I0
sg24
I0
sg17
I0
sg20
I0
sa(dp453
g3
I0
sg4
I0
sg5
I0
sg6
I0
sg7
I0
sg8
I0
sg9
I0
sg10
I0
sg11
I0
sg12
I0
sg13
I0
sg14
I0
sg24
I0
sg15
I1
sg2
I0
sg16
I0
sg18
I0
sg19
I0
sg21
I0
sg22
I0
sg23
I0
sg25
I0
sg17
I0
sg20
I0
sa(dp454
g3
I0
sg4
I0
sg10
I0
sg5
I0
sg7
I0
sg8
I1
sg11
I0
sg9
I0
sg6
I0
sg12
I0
sg13
I0
sg14
I0
sg21
I0
sg2
I0
sg16
I0
sg18
I0
sg19
I0
sg20
I0
sg15
I0
sg22
I0
sg23
I0
sg24
I0
sg17
I0
sg25
I0
sa(dp455
g3
I0
sg4
I0
sg5
I0
sg6
I0
sg7
I0
sg8
I1
sg9
I0
sg10
I0
sg11
I0
sg12
I0
sg13
I0
sg14
I0
sg25
I0
sg15
I0
sg2
I0
sg16
I0
sg18
I0
sg19
I0
sg21
I0
sg22
I0
sg23
I0
sg24
I0
sg17
I0
sg20
I0
sa(dp456
g3
I0
sg4
I0
sg10
I0
sg5
I0
sg7
I0
sg8
I1
sg11
I0
sg9
I0
sg6
I0
sg12
I0
sg13
I0
sg14
I0
sg24
I0
sg21
I0
sg2
I0
sg16
I0
sg18
I0
sg19
I0
sg15
I0
sg22
I0
sg23
I0
sg25
I0
sg17
I0
sg20
I0
sa(dp457
g3
I0
sg4
I0
sg5
I0
sg6
I0
sg7
I0
sg8
I0
sg9
I0
sg10
I0
sg11
I0
sg12
I0
sg13
I0
sg14
I0
sg15
I0
sg2
I0
sg16
I0
sg18
I0
sg19
I1
sg20
I0
sg21
I0
sg22
I0
sg23
I0
sg24
I0
sg17
I0
sg25
I0
sa(dp458
g3
I0
sg4
I0
sg10
I0
sg5
I0
sg7
I0
sg8
I1
sg11
I0
sg9
I0
sg6
I0
sg12
I0
sg13
I0
sg14
I0
sg25
I0
sg21
I0
sg2
I0
sg16
I0
sg18
I0
sg19
I0
sg15
I0
sg22
I0
sg23
I0
sg24
I0
sg17
I0
sg20
I0
sa(dp459
g3
I0
sg4
I0
sg5
I0
sg6
I0
sg7
I0
sg8
I0
sg9
I0
sg10
I0
sg11
I0
sg12
I0
sg13
I0
sg14
I0
sg24
I0
sg15
I0
sg2
I0
sg16
I0
sg18
I1
sg19
I0
sg21
I0
sg22
I0
sg23
I0
sg25
I0
sg17
I0
sg20
I0
sa(dp460
g3
I0
sg4
I0
sg10
I0
sg5
I0
sg7
I0
sg8
I0
sg11
I0
sg9
I0
sg6
I0
sg12
I1
sg13
I0
sg14
I0
sg21
I0
sg2
I0
sg16
I0
sg18
I0
sg19
I0
sg20
I0
sg15
I0
sg22
I0
sg23
I0
sg24
I0
sg17
I0
sg25
I0
sa(dp461
g3
I0
sg4
I0
sg5
I0
sg6
I0
sg7
I0
sg8
I0
sg9
I1
sg10
I0
sg11
I0
sg12
I0
sg13
I0
sg14
I0
sg25
I0
sg15
I0
sg2
I0
sg16
I0
sg18
I0
sg19
I0
sg21
I0
sg22
I0
sg23
I0
sg24
I0
sg17
I0
sg20
I0
sa(dp462
g3
I0
sg4
I0
sg10
I0
sg5
I0
sg7
I0
sg8
I0
sg11
I0
sg9
I0
sg6
I0
sg12
I0
sg13
I0
sg14
I1
sg24
I0
sg21
I0
sg2
I0
sg16
I0
sg18
I0
sg19
I0
sg15
I0
sg22
I0
sg23
I0
sg25
I0
sg17
I0
sg20
I0
sa(dp463
g3
I0
sg4
I0
sg5
I0
sg6
I0
sg7
I0
sg8
I0
sg9
I0
sg10
I0
sg11
I0
sg12
I0
sg13
I0
sg14
I0
sg15
I0
sg2
I0
sg16
I0
sg18
I0
sg19
I1
sg20
I0
sg21
I0
sg22
I0
sg23
I0
sg24
I0
sg17
I0
sg25
I0
sa(dp464
g3
I0
sg4
I0
sg10
I0
sg5
I0
sg7
I1
sg8
I0
sg11
I0
sg9
I0
sg6
I0
sg12
I0
sg13
I0
sg14
I0
sg25
I0
sg21
I0
sg2
I0
sg16
I0
sg18
I0
sg19
I0
sg15
I0
sg22
I0
sg23
I0
sg24
I0
sg17
I0
sg20
I0
sa(dp465
g3
I0
sg4
I0
sg5
I0
sg6
I0
sg7
I0
sg8
I0
sg9
I0
sg10
I0
sg11
I0
sg12
I0
sg13
I0
sg14
I0
sg24
I0
sg15
I0
sg2
I0
sg16
I0
sg18
I0
sg19
I0
sg21
I1
sg22
I0
sg23
I0
sg25
I0
sg17
I0
sg20
I0
sa(dp466
g3
I0
sg4
I0
sg10
I0
sg5
I0
sg7
I0
sg8
I1
sg11
I0
sg9
I0
sg6
I0
sg12
I0
sg13
I0
sg14
I0
sg21
I0
sg2
I0
sg16
I0
sg18
I0
sg19
I0
sg20
I0
sg15
I0
sg22
I0
sg23
I0
sg24
I0
sg17
I0
sg25
I0
sa(dp467
g3
I0
sg4
I0
sg5
I0
sg6
I0
sg7
I0
sg8
I1
sg9
I0
sg10
I0
sg11
I0
sg12
I0
sg13
I0
sg14
I0
sg25
I0
sg15
I0
sg2
I0
sg16
I0
sg18
I0
sg19
I0
sg21
I0
sg22
I0
sg23
I0
sg24
I0
sg17
I0
sg20
I0
sa(dp468
g3
I0
sg4
I0
sg10
I0
sg5
I0
sg7
I0
sg8
I0
sg11
I0
sg9
I0
sg6
I0
sg12
I0
sg13
I0
sg14
I0
sg24
I0
sg21
I1
sg2
I0
sg16
I0
sg18
I0
sg19
I0
sg15
I0
sg22
I0
sg23
I0
sg25
I0
sg17
I0
sg20
I0
sa(dp469
g3
I0
sg4
I0
sg5
I0
sg6
I0
sg7
I0
sg8
I0
sg9
I1
sg10
I0
sg11
I0
sg12
I0
sg13
I0
sg14
I0
sg15
I0
sg2
I0
sg16
I0
sg18
I0
sg19
I0
sg20
I0
sg21
I0
sg22
I0
sg23
I0
sg24
I0
sg17
I0
sg25
I0
sa(dp470
g3
I0
sg4
I0
sg10
I0
sg5
I0
sg7
I0
sg8
I0
sg11
I0
sg9
I0
sg6
I0
sg12
I0
sg13
I0
sg14
I1
sg25
I0
sg21
I0
sg2
I0
sg16
I0
sg18
I0
sg19
I0
sg15
I0
sg22
I0
sg23
I0
sg24
I0
sg17
I0
sg20
I0
sa(dp471
g3
I0
sg4
I0
sg5
I0
sg6
I0
sg7
I0
sg8
I0
sg9
I0
sg10
I0
sg11
I0
sg12
I0
sg13
I0
sg14
I0
sg24
I0
sg15
I0
sg2
I0
sg16
I0
sg18
I0
sg19
I0
sg21
I0
sg22
I1
sg23
I0
sg25
I0
sg17
I0
sg20
I0
sa(dp472
g3
I0
sg4
I0
sg10
I0
sg5
I0
sg7
I1
sg8
I0
sg11
I0
sg9
I0
sg6
I0
sg12
I0
sg13
I0
sg14
I0
sg21
I0
sg2
I0
sg16
I0
sg18
I0
sg19
I0
sg20
I0
sg15
I0
sg22
I0
sg23
I0
sg24
I0
sg17
I0
sg25
I0
sa(dp473
g3
I0
sg4
I0
sg5
I0
sg6
I0
sg7
I0
sg8
I0
sg9
I0
sg10
I0
sg11
I0
sg12
I0
sg13
I0
sg14
I0
sg25
I1
sg15
I0
sg2
I0
sg16
I0
sg18
I0
sg19
I0
sg21
I0
sg22
I0
sg23
I0
sg24
I0
sg17
I0
sg20
I0
sa(dp474
g3
I0
sg4
I1
sg10
I0
sg5
I0
sg7
I0
sg8
I0
sg11
I0
sg9
I0
sg6
I0
sg12
I0
sg13
I0
sg14
I0
sg24
I0
sg21
I0
sg2
I0
sg16
I0
sg18
I0
sg19
I0
sg15
I0
sg22
I0
sg23
I0
sg25
I0
sg17
I0
sg20
I0
sa(dp475
g3
I0
sg4
I0
sg5
I0
sg6
I0
sg7
I0
sg8
I0
sg9
I0
sg10
I0
sg11
I0
sg12
I1
sg13
I0
sg14
I0
sg15
I0
sg2
I0
sg16
I0
sg18
I0
sg19
I0
sg20
I0
sg21
I0
sg22
I0
sg23
I0
sg24
I0
sg17
I0
sg25
I0
sa(dp476
g3
I0
sg4
I0
sg10
I0
sg5
I0
sg7
I0
sg8
I1
sg11
I0
sg9
I0
sg6
I0
sg12
I0
sg13
I0
sg14
I0
sg25
I0
sg21
I0
sg2
I0
sg16
I0
sg18
I0
sg19
I0
sg15
I0
sg22
I0
sg23
I0
sg24
I0
sg17
I0
sg20
I0
sa(dp477
g3
I0
sg4
I0
sg5
I0
sg6
I0
sg7
I0
sg8
I0
sg9
I0
sg10
I1
sg11
I0
sg12
I0
sg13
I0
sg14
I0
sg24
I0
sg15
I0
sg2
I0
sg16
I0
sg18
I0
sg19
I0
sg21
I0
sg22
I0
sg23
I0
sg25
I0
sg17
I0
sg20
I0
sa(dp478
g3
I0
sg4
I0
sg10
I0
sg5
I0
sg7
I1
sg8
I0
sg11
I0
sg9
I0
sg6
I0
sg12
I0
sg13
I0
sg14
I0
sg21
I0
sg2
I0
sg16
I0
sg18
I0
sg19
I0
sg20
I0
sg15
I0
sg22
I0
sg23
I0
sg24
I0
sg17
I0
sg25
I0
sa(dp479
g3
I0
sg4
I0
sg5
I0
sg6
I0
sg7
I0
sg8
I1
sg9
I0
sg10
I0
sg11
I0
sg12
I0
sg13
I0
sg14
I0
sg25
I0
sg15
I0
sg2
I0
sg16
I0
sg18
I0
sg19
I0
sg21
I0
sg22
I0
sg23
I0
sg24
I0
sg17
I0
sg20
I0
sa(dp480
g3
I0
sg4
I0
sg10
I0
sg5
I0
sg7
I0
sg8
I1
sg11
I0
sg9
I0
sg6
I0
sg12
I0
sg13
I0
sg14
I0
sg24
I0
sg21
I0
sg2
I0
sg16
I0
sg18
I0
sg19
I0
sg15
I0
sg22
I0
sg23
I0
sg25
I0
sg17
I0
sg20
I0
sa(dp481
g3
I0
sg4
I0
sg5
I0
sg6
I0
sg7
I0
sg8
I0
sg9
I0
sg10
I0
sg11
I0
sg12
I0
sg13
I0
sg14
I0
sg15
I0
sg2
I1
sg16
I0
sg18
I0
sg19
I0
sg20
I0
sg21
I0
sg22
I0
sg23
I0
sg24
I0
sg17
I0
sg25
I0
sa(dp482
g3
I0
sg4
I0
sg10
I0
sg5
I0
sg7
I0
sg8
I0
sg11
I0
sg9
I0
sg6
I0
sg12
I0
sg13
I0
sg14
I0
sg25
I0
sg21
I0
sg2
I0
sg16
I0
sg18
I0
sg19
I1
sg15
I0
sg22
I0
sg23
I0
sg24
I0
sg17
I0
sg20
I0
sa(dp483
g3
I0
sg4
I0
sg5
I0
sg6
I0
sg7
I0
sg8
I0
sg9
I1
sg10
I0
sg11
I0
sg12
I0
sg13
I0
sg14
I0
sg24
I0
sg15
I0
sg2
I0
sg16
I0
sg18
I0
sg19
I0
sg21
I0
sg22
I0
sg23
I0
sg25
I0
sg17
I0
sg20
I0
sa(dp484
g3
I0
sg4
I0
sg10
I0
sg5
I0
sg7
I1
sg8
I0
sg11
I0
sg9
I0
sg6
I0
sg12
I0
sg13
I0
sg14
I0
sg21
I0
sg2
I0
sg16
I0
sg18
I0
sg19
I0
sg20
I0
sg15
I0
sg22
I0
sg23
I0
sg24
I0
sg17
I0
sg25
I0
sa(dp485
g3
I0
sg4
I0
sg5
I0
sg6
I0
sg7
I0
sg8
I0
sg9
I0
sg10
I0
sg11
I0
sg12
I0
sg13
I0
sg14
I0
sg25
I0
sg15
I1
sg2
I0
sg16
I0
sg18
I0
sg19
I0
sg21
I0
sg22
I0
sg23
I0
sg24
I0
sg17
I0
sg20
I0
sa(dp486
g3
I0
sg4
I0
sg10
I0
sg5
I0
sg7
I0
sg8
I1
sg11
I0
sg9
I0
sg6
I0
sg12
I0
sg13
I0
sg14
I0
sg24
I0
sg21
I0
sg2
I0
sg16
I0
sg18
I0
sg19
I0
sg15
I0
sg22
I0
sg23
I0
sg25
I0
sg17
I0
sg20
I0
sa(dp487
g3
I0
sg4
I0
sg5
I0
sg6
I0
sg7
I0
sg8
I1
sg9
I0
sg10
I0
sg11
I0
sg12
I0
sg13
I0
sg14
I0
sg15
I0
sg2
I0
sg16
I0
sg18
I0
sg19
I0
sg20
I0
sg21
I0
sg22
I0
sg23
I0
sg24
I0
sg17
I0
sg25
I0
sa(dp488
g3
I0
sg4
I0
sg10
I0
sg5
I0
sg7
I1
sg8
I0
sg11
I0
sg9
I0
sg6
I0
sg12
I0
sg13
I0
sg14
I0
sg25
I0
sg21
I0
sg2
I0
sg16
I0
sg18
I0
sg19
I0
sg15
I0
sg22
I0
sg23
I0
sg24
I0
sg17
I0
sg20
I0
sa(dp489
g3
I0
sg4
I0
sg5
I0
sg6
I0
sg7
I0
sg8
I1
sg9
I0
sg10
I0
sg11
I0
sg12
I0
sg13
I0
sg14
I0
sg24
I0
sg15
I0
sg2
I0
sg16
I0
sg18
I0
sg19
I0
sg21
I0
sg22
I0
sg23
I0
sg25
I0
sg17
I0
sg20
I0
sa(dp490
g3
I0
sg4
I0
sg10
I0
sg5
I0
sg7
I0
sg8
I0
sg11
I0
sg9
I0
sg6
I1
sg12
I0
sg13
I0
sg14
I0
sg21
I0
sg2
I0
sg16
I0
sg18
I0
sg19
I0
sg20
I0
sg15
I0
sg22
I0
sg23
I0
sg24
I0
sg17
I0
sg25
I0
sa(dp491
g3
I0
sg4
I0
sg5
I0
sg6
I0
sg7
I0
sg8
I0
sg9
I0
sg10
I0
sg11
I0
sg12
I0
sg13
I0
sg14
I0
sg25
I0
sg15
I0
sg2
I0
sg16
I0
sg18
I1
sg19
I0
sg21
I0
sg22
I0
sg23
I0
sg24
I0
sg17
I0
sg20
I0
sa(dp492
g3
I0
sg4
I0
sg10
I0
sg5
I0
sg7
I0
sg8
I0
sg11
I0
sg9
I0
sg6
I0
sg12
I0
sg13
I0
sg14
I0
sg24
I0
sg21
I0
sg2
I0
sg16
I0
sg18
I0
sg19
I0
sg15
I0
sg22
I0
sg23
I0
sg25
I1
sg17
I0
sg20
I0
sa(dp493
g3
I0
sg4
I0
sg5
I0
sg6
I0
sg7
I0
sg8
I1
sg9
I0
sg10
I0
sg11
I0
sg12
I0
sg13
I0
sg14
I0
sg15
I0
sg2
I0
sg16
I0
sg18
I0
sg19
I0
sg20
I0
sg21
I0
sg22
I0
sg23
I0
sg24
I0
sg17
I0
sg25
I0
sa(dp494
g3
I0
sg4
I0
sg10
I0
sg5
I0
sg7
I0
sg8
I0
sg11
I0
sg9
I0
sg6
I0
sg12
I1
sg13
I0
sg14
I0
sg25
I0
sg21
I0
sg2
I0
sg16
I0
sg18
I0
sg19
I0
sg15
I0
sg22
I0
sg23
I0
sg24
I0
sg17
I0
sg20
I0
sa(dp495
g3
I0
sg4
I0
sg5
I0
sg6
I0
sg7
I0
sg8
I0
sg9
I1
sg10
I0
sg11
I0
sg12
I0
sg13
I0
sg14
I0
sg24
I0
sg15
I0
sg2
I0
sg16
I0
sg18
I0
sg19
I0
sg21
I0
sg22
I0
sg23
I0
sg25
I0
sg17
I0
sg20
I0
sa(dp496
g3
I0
sg4
I0
sg10
I0
sg5
I0
sg7
I0
sg8
I1
sg11
I0
sg9
I0
sg6
I0
sg12
I0
sg13
I0
sg14
I0
sg21
I0
sg2
I0
sg16
I0
sg18
I0
sg19
I0
sg20
I0
sg15
I0
sg22
I0
sg23
I0
sg24
I0
sg17
I0
sg25
I0
sa(dp497
g3
I0
sg4
I0
sg5
I0
sg6
I0
sg7
I0
sg8
I0
sg9
I0
sg10
I0
sg11
I0
sg12
I0
sg13
I0
sg14
I0
sg25
I0
sg15
I0
sg2
I0
sg16
I0
sg18
I1
sg19
I0
sg21
I0
sg22
I0
sg23
I0
sg24
I0
sg17
I0
sg20
I0
sa(dp498
g3
I1
sg4
I0
sg10
I0
sg5
I0
sg7
I0
sg8
I0
sg11
I0
sg9
I0
sg6
I0
sg12
I0
sg13
I0
sg14
I0
sg24
I0
sg21
I0
sg2
I0
sg16
I0
sg18
I0
sg19
I0
sg15
I0
sg22
I0
sg23
I0
sg25
I0
sg17
I0
sg20
I0
sa(dp499
g3
I0
sg4
I0
sg5
I0
sg6
I0
sg7
I0
sg8
I0
sg9
I0
sg10
I0
sg11
I0
sg12
I0
sg13
I0
sg14
I0
sg15
I1
sg2
I0
sg16
I0
sg18
I0
sg19
I0
sg20
I0
sg21
I0
sg22
I0
sg23
I0
sg24
I0
sg17
I0
sg25
I0
sa(dp500
g3
I0
sg4
I0
sg10
I0
sg5
I0
sg7
I1
sg8
I0
sg11
I0
sg9
I0
sg6
I0
sg12
I0
sg13
I0
sg14
I0
sg25
I0
sg21
I0
sg2
I0
sg16
I0
sg18
I0
sg19
I0
sg15
I0
sg22
I0
sg23
I0
sg24
I0
sg17
I0
sg20
I0
sa(dp501
g3
I0
sg4
I0
sg5
I0
sg6
I0
sg7
I0
sg8
I0
sg9
I0
sg10
I0
sg11
I0
sg12
I0
sg13
I0
sg14
I0
sg24
I0
sg15
I0
sg2
I0
sg16
I0
sg18
I1
sg19
I0
sg21
I0
sg22
I0
sg23
I0
sg25
I0
sg17
I0
sg20
I0
sa(dp502
g3
I0
sg4
I0
sg10
I0
sg5
I0
sg7
I0
sg8
I0
sg11
I0
sg9
I0
sg6
I0
sg12
I0
sg13
I0
sg14
I0
sg21
I0
sg2
I0
sg16
I0
sg18
I0
sg19
I1
sg20
I0
sg15
I0
sg22
I0
sg23
I0
sg24
I0
sg17
I0
sg25
I0
sa(dp503
g3
I1
sg4
I0
sg5
I0
sg6
I0
sg7
I0
sg8
I0
sg9
I0
sg10
I0
sg11
I0
sg12
I0
sg13
I0
sg14
I0
sg25
I0
sg15
I0
sg2
I0
sg16
I0
sg18
I0
sg19
I0
sg21
I0
sg22
I0
sg23
I0
sg24
I0
sg17
I0
sg20
I0
sa(dp504
g3
I0
sg4
I0
sg10
I0
sg5
I0
sg7
I0
sg8
I0
sg11
I0
sg9
I0
sg6
I0
sg12
I0
sg13
I0
sg14
I0
sg24
I0
sg21
I0
sg2
I1
sg16
I0
sg18
I0
sg19
I0
sg15
I0
sg22
I0
sg23
I0
sg25
I0
sg17
I0
sg20
I0
sa(dp505
g3
I0
sg4
I0
sg5
I0
sg6
I0
sg7
I0
sg8
I1
sg9
I0
sg10
I0
sg11
I0
sg12
I0
sg13
I0
sg14
I0
sg15
I0
sg2
I0
sg16
I0
sg18
I0
sg19
I0
sg20
I0
sg21
I0
sg22
I0
sg23
I0
sg24
I0
sg17
I0
sg25
I0
sa(dp506
g3
I0
sg4
I0
sg10
I0
sg5
I0
sg7
I0
sg8
I0
sg11
I0
sg9
I0
sg6
I0
sg12
I0
sg13
I0
sg14
I1
sg25
I0
sg21
I0
sg2
I0
sg16
I0
sg18
I0
sg19
I0
sg15
I0
sg22
I0
sg23
I0
sg24
I0
sg17
I0
sg20
I0
sa(dp507
g3
I0
sg4
I1
sg5
I0
sg6
I0
sg7
I0
sg8
I0
sg9
I0
sg10
I0
sg11
I0
sg12
I0
sg13
I0
sg14
I0
sg24
I0
sg15
I0
sg2
I0
sg16
I0
sg18
I0
sg19
I0
sg21
I0
sg22
I0
sg23
I0
sg25
I0
sg17
I0
sg20
I0
sa(dp508
g3
I0
sg4
I0
sg10
I0
sg5
I0
sg7
I0
sg8
I1
sg11
I0
sg9
I0
sg6
I0
sg12
I0
sg13
I0
sg14
I0
sg21
I0
sg2
I0
sg16
I0
sg18
I0
sg19
I0
sg20
I0
sg15
I0
sg22
I0
sg23
I0
sg24
I0
sg17
I0
sg25
I0
sa(dp509
g3
I0
sg4
I0
sg5
I0
sg6
I0
sg7
I0
sg8
I1
sg9
I0
sg10
I0
sg11
I0
sg12
I0
sg13
I0
sg14
I0
sg25
I0
sg15
I0
sg2
I0
sg16
I0
sg18
I0
sg19
I0
sg21
I0
sg22
I0
sg23
I0
sg24
I0
sg17
I0
sg20
I0
sa(dp510
g3
I0
sg4
I0
sg10
I0
sg5
I0
sg7
I0
sg8
I0
sg11
I0
sg9
I0
sg6
I0
sg12
I1
sg13
I0
sg14
I0
sg24
I0
sg21
I0
sg2
I0
sg16
I0
sg18
I0
sg19
I0
sg15
I0
sg22
I0
sg23
I0
sg25
I0
sg17
I0
sg20
I0
sa(dp511
g3
I0
sg4
I0
sg5
I0
sg6
I0
sg7
I0
sg8
I0
sg9
I0
sg10
I0
sg11
I0
sg12
I0
sg13
I0
sg14
I0
sg15
I0
sg2
I0
sg16
I0
sg18
I1
sg19
I0
sg20
I0
sg21
I0
sg22
I0
sg23
I0
sg24
I0
sg17
I0
sg25
I0
sa(dp512
g3
I0
sg4
I0
sg10
I0
sg5
I0
sg7
I0
sg8
I0
sg11
I0
sg9
I0
sg6
I0
sg12
I0
sg13
I0
sg14
I0
sg25
I0
sg21
I0
sg2
I0
sg16
I0
sg18
I0
sg19
I0
sg15
I0
sg22
I0
sg23
I0
sg24
I1
sg17
I0
sg20
I0
sa(dp513
g3
I0
sg4
I0
sg5
I0
sg6
I0
sg7
I0
sg8
I1
sg9
I0
sg10
I0
sg11
I0
sg12
I0
sg13
I0
sg14
I0
sg24
I0
sg15
I0
sg2
I0
sg16
I0
sg18
I0
sg19
I0
sg21
I0
sg22
I0
sg23
I0
sg25
I0
sg17
I0
sg20
I0
sa(dp514
g3
I0
sg4
I0
sg10
I0
sg5
I0
sg7
I0
sg8
I0
sg11
I1
sg9
I0
sg6
I0
sg12
I0
sg13
I0
sg14
I0
sg21
I0
sg2
I0
sg16
I0
sg18
I0
sg19
I0
sg20
I0
sg15
I0
sg22
I0
sg23
I0
sg24
I0
sg17
I0
sg25
I0
sa(dp515
g3
I0
sg4
I0
sg5
I0
sg6
I0
sg7
I0
sg8
I0
sg9
I0
sg10
I0
sg11
I0
sg12
I0
sg13
I0
sg14
I0
sg25
I0
sg15
I0
sg2
I1
sg16
I0
sg18
I0
sg19
I0
sg21
I0
sg22
I0
sg23
I0
sg24
I0
sg17
I0
sg20
I0
sa(dp516
g3
I0
sg4
I0
sg10
I0
sg5
I0
sg7
I0
sg8
I0
sg11
I0
sg9
I1
sg6
I0
sg12
I0
sg13
I0
sg14
I0
sg24
I0
sg21
I0
sg2
I0
sg16
I0
sg18
I0
sg19
I0
sg15
I0
sg22
I0
sg23
I0
sg25
I0
sg17
I0
sg20
I0
sa(dp517
g3
I0
sg4
I0
sg5
I0
sg6
I0
sg7
I1
sg8
I0
sg9
I0
sg10
I0
sg11
I0
sg12
I0
sg13
I0
sg14
I0
sg15
I0
sg2
I0
sg16
I0
sg18
I0
sg19
I0
sg20
I0
sg21
I0
sg22
I0
sg23
I0
sg24
I0
sg17
I0
sg25
I0
sa(dp518
g3
I0
sg4
I0
sg10
I0
sg5
I0
sg7
I0
sg8
I0
sg11
I0
sg9
I0
sg6
I0
sg12
I0
sg13
I0
sg14
I0
sg25
I0
sg21
I0
sg2
I0
sg16
I0
sg18
I0
sg19
I1
sg15
I0
sg22
I0
sg23
I0
sg24
I0
sg17
I0
sg20
I0
sa(dp519
g3
I0
sg4
I0
sg5
I0
sg6
I0
sg7
I0
sg8
I0
sg9
I0
sg10
I0
sg11
I0
sg12
I0
sg13
I0
sg14
I0
sg24
I0
sg15
I0
sg2
I0
sg16
I1
sg18
I0
sg19
I0
sg21
I0
sg22
I0
sg23
I0
sg25
I0
sg17
I0
sg20
I0
sa(dp520
g3
I0
sg4
I0
sg10
I0
sg5
I0
sg7
I0
sg8
I0
sg11
I0
sg9
I0
sg6
I0
sg12
I0
sg13
I0
sg14
I0
sg21
I0
sg2
I0
sg16
I0
sg18
I0
sg19
I0
sg20
I0
sg15
I0
sg22
I0
sg23
I0
sg24
I0
sg17
I0
sg25
I1
sa(dp521
g3
I0
sg4
I0
sg5
I0
sg6
I0
sg7
I0
sg8
I0
sg9
I0
sg10
I0
sg11
I0
sg12
I1
sg13
I0
sg14
I0
sg25
I0
sg15
I0
sg2
I0
sg16
I0
sg18
I0
sg19
I0
sg21
I0
sg22
I0
sg23
I0
sg24
I0
sg17
I0
sg20
I0
sa(dp522
g3
I0
sg4
I0
sg10
I0
sg5
I0
sg7
I0
sg8
I0
sg11
I1
sg9
I0
sg6
I0
sg12
I0
sg13
I0
sg14
I0
sg24
I0
sg21
I0
sg2
I0
sg16
I0
sg18
I0
sg19
I0
sg15
I0
sg22
I0
sg23
I0
sg25
I0
sg17
I0
sg20
I0
sa(dp523
g3
I0
sg4
I0
sg5
I0
sg6
I0
sg7
I0
sg8
I0
sg9
I0
sg10
I0
sg11
I0
sg12
I0
sg13
I0
sg14
I0
sg15
I1
sg2
I0
sg16
I0
sg18
I0
sg19
I0
sg20
I0
sg21
I0
sg22
I0
sg23
I0
sg24
I0
sg17
I0
sg25
I0
sa(dp524
g3
I1
sg4
I0
sg10
I0
sg5
I0
sg7
I0
sg8
I0
sg11
I0
sg9
I0
sg6
I0
sg12
I0
sg13
I0
sg14
I0
sg25
I0
sg21
I0
sg2
I0
sg16
I0
sg18
I0
sg19
I0
sg15
I0
sg22
I0
sg23
I0
sg24
I0
sg17
I0
sg20
I0
sa(dp525
g3
I0
sg4
I0
sg5
I0
sg6
I0
sg7
I0
sg8
I0
sg9
I0
sg10
I0
sg11
I0
sg12
I1
sg13
I0
sg14
I0
sg24
I0
sg15
I0
sg2
I0
sg16
I0
sg18
I0
sg19
I0
sg21
I0
sg22
I0
sg23
I0
sg25
I0
sg17
I0
sg20
I0
sa(dp526
g3
I0
sg4
I0
sg10
I0
sg5
I0
sg7
I0
sg8
I1
sg11
I0
sg9
I0
sg6
I0
sg12
I0
sg13
I0
sg14
I0
sg21
I0
sg2
I0
sg16
I0
sg18
I0
sg19
I0
sg20
I0
sg15
I0
sg22
I0
sg23
I0
sg24
I0
sg17
I0
sg25
I0
sa(dp527
g3
I0
sg4
I0
sg5
I0
sg6
I0
sg7
I0
sg8
I0
sg9
I0
sg10
I0
sg11
I0
sg12
I0
sg13
I0
sg14
I0
sg25
I0
sg15
I0
sg2
I1
sg16
I0
sg18
I0
sg19
I0
sg21
I0
sg22
I0
sg23
I0
sg24
I0
sg17
I0
sg20
I0
sa(dp528
g3
I0
sg4
I0
sg10
I0
sg5
I0
sg7
I0
sg8
I1
sg11
I0
sg9
I0
sg6
I0
sg12
I0
sg13
I0
sg14
I0
sg24
I0
sg21
I0
sg2
I0
sg16
I0
sg18
I0
sg19
I0
sg15
I0
sg22
I0
sg23
I0
sg25
I0
sg17
I0
sg20
I0
sa(dp529
g3
I0
sg4
I0
sg5
I0
sg6
I0
sg7
I1
sg8
I0
sg9
I0
sg10
I0
sg11
I0
sg12
I0
sg13
I0
sg14
I0
sg15
I0
sg2
I0
sg16
I0
sg18
I0
sg19
I0
sg20
I0
sg21
I0
sg22
I0
sg23
I0
sg24
I0
sg17
I0
sg25
I0
sa(dp530
g3
I0
sg4
I0
sg10
I0
sg5
I0
sg7
I0
sg8
I1
sg11
I0
sg9
I0
sg6
I0
sg12
I0
sg13
I0
sg14
I0
sg25
I0
sg21
I0
sg2
I0
sg16
I0
sg18
I0
sg19
I0
sg15
I0
sg22
I0
sg23
I0
sg24
I0
sg17
I0
sg20
I0
sa(dp531
g3
I0
sg4
I0
sg5
I0
sg6
I0
sg7
I0
sg8
I1
sg9
I0
sg10
I0
sg11
I0
sg12
I0
sg13
I0
sg14
I0
sg24
I0
sg15
I0
sg2
I0
sg16
I0
sg18
I0
sg19
I0
sg21
I0
sg22
I0
sg23
I0
sg25
I0
sg17
I0
sg20
I0
sa(dp532
g3
I0
sg4
I0
sg10
I0
sg5
I0
sg7
I1
sg8
I0
sg11
I0
sg9
I0
sg6
I0
sg12
I0
sg13
I0
sg14
I0
sg21
I0
sg2
I0
sg16
I0
sg18
I0
sg19
I0
sg20
I0
sg15
I0
sg22
I0
sg23
I0
sg24
I0
sg17
I0
sg25
I0
sa(dp533
g3
I0
sg4
I1
sg5
I0
sg6
I0
sg7
I0
sg8
I0
sg9
I0
sg10
I0
sg11
I0
sg12
I0
sg13
I0
sg14
I0
sg25
I0
sg15
I0
sg2
I0
sg16
I0
sg18
I0
sg19
I0
sg21
I0
sg22
I0
sg23
I0
sg24
I0
sg17
I0
sg20
I0
sa(dp534
g3
I0
sg4
I0
sg10
I0
sg5
I0
sg7
I0
sg8
I0
sg11
I0
sg9
I0
sg6
I0
sg12
I0
sg13
I0
sg14
I0
sg24
I0
sg21
I1
sg2
I0
sg16
I0
sg18
I0
sg19
I0
sg15
I0
sg22
I0
sg23
I0
sg25
I0
sg17
I0
sg20
I0
sa(dp535
g3
I0
sg4
I0
sg5
I0
sg6
I0
sg7
I0
sg8
I0
sg9
I1
sg10
I0
sg11
I0
sg12
I0
sg13
I0
sg14
I0
sg15
I0
sg2
I0
sg16
I0
sg18
I0
sg19
I0
sg20
I0
sg21
I0
sg22
I0
sg23
I0
sg24
I0
sg17
I0
sg25
I0
sa(dp536
g3
I0
sg4
I0
sg10
I0
sg5
I0
sg7
I1
sg8
I0
sg11
I0
sg9
I0
sg6
I0
sg12
I0
sg13
I0
sg14
I0
sg25
I0
sg21
I0
sg2
I0
sg16
I0
sg18
I0
sg19
I0
sg15
I0
sg22
I0
sg23
I0
sg24
I0
sg17
I0
sg20
I0
sa(dp537
g3
I0
sg4
I0
sg5
I0
sg6
I0
sg7
I0
sg8
I0
sg9
I0
sg10
I0
sg11
I0
sg12
I0
sg13
I0
sg14
I0
sg24
I0
sg15
I0
sg2
I0
sg16
I1
sg18
I0
sg19
I0
sg21
I0
sg22
I0
sg23
I0
sg25
I0
sg17
I0
sg20
I0
sa(dp538
g3
I1
sg4
I0
sg10
I0
sg5
I0
sg7
I0
sg8
I0
sg11
I0
sg9
I0
sg6
I0
sg12
I0
sg13
I0
sg14
I0
sg21
I0
sg2
I0
sg16
I0
sg18
I0
sg19
I0
sg20
I0
sg15
I0
sg22
I0
sg23
I0
sg24
I0
sg17
I0
sg25
I0
sa(dp539
g3
I0
sg4
I1
sg5
I0
sg6
I0
sg7
I0
sg8
I0
sg9
I0
sg10
I0
sg11
I0
sg12
I0
sg13
I0
sg14
I0
sg25
I0
sg15
I0
sg2
I0
sg16
I0
sg18
I0
sg19
I0
sg21
I0
sg22
I0
sg23
I0
sg24
I0
sg17
I0
sg20
I0
sa(dp540
g3
I0
sg4
I0
sg10
I0
sg5
I0
sg7
I0
sg8
I1
sg11
I0
sg9
I0
sg6
I0
sg12
I0
sg13
I0
sg14
I0
sg24
I0
sg21
I0
sg2
I0
sg16
I0
sg18
I0
sg19
I0
sg15
I0
sg22
I0
sg23
I0
sg25
I0
sg17
I0
sg20
I0
sa(dp541
g3
I0
sg4
I0
sg5
I1
sg6
I0
sg7
I0
sg8
I0
sg9
I0
sg10
I0
sg11
I0
sg12
I0
sg13
I0
sg14
I0
sg15
I0
sg2
I0
sg16
I0
sg18
I0
sg19
I0
sg20
I0
sg21
I0
sg22
I0
sg23
I0
sg24
I0
sg17
I0
sg25
I0
sa(dp542
g3
I0
sg4
I0
sg10
I0
sg5
I0
sg7
I0
sg8
I1
sg11
I0
sg9
I0
sg6
I0
sg12
I0
sg13
I0
sg14
I0
sg25
I0
sg21
I0
sg2
I0
sg16
I0
sg18
I0
sg19
I0
sg15
I0
sg22
I0
sg23
I0
sg24
I0
sg17
I0
sg20
I0
sa(dp543
g3
I0
sg4
I0
sg5
I0
sg6
I0
sg7
I1
sg8
I0
sg9
I0
sg10
I0
sg11
I0
sg12
I0
sg13
I0
sg14
I0
sg24
I0
sg15
I0
sg2
I0
sg16
I0
sg18
I0
sg19
I0
sg21
I0
sg22
I0
sg23
I0
sg25
I0
sg17
I0
sg20
I0
sa(dp544
g3
I0
sg4
I0
sg10
I0
sg5
I0
sg7
I0
sg8
I0
sg11
I0
sg9
I0
sg6
I0
sg12
I0
sg13
I0
sg14
I0
sg21
I0
sg2
I1
sg16
I0
sg18
I0
sg19
I0
sg20
I0
sg15
I0
sg22
I0
sg23
I0
sg24
I0
sg17
I0
sg25
I0
sa(dp545
g3
I0
sg4
I0
sg5
I0
sg6
I0
sg7
I0
sg8
I1
sg9
I0
sg10
I0
sg11
I0
sg12
I0
sg13
I0
sg14
I0
sg25
I0
sg15
I0
sg2
I0
sg16
I0
sg18
I0
sg19
I0
sg21
I0
sg22
I0
sg23
I0
sg24
I0
sg17
I0
sg20
I0
sa(dp546
g3
I0
sg4
I0
sg10
I0
sg5
I0
sg7
I0
sg8
I0
sg11
I0
sg9
I0
sg6
I0
sg12
I0
sg13
I0
sg14
I0
sg24
I0
sg21
I0
sg2
I0
sg16
I0
sg18
I0
sg19
I0
sg15
I0
sg22
I1
sg23
I0
sg25
I0
sg17
I0
sg20
I0
sa(dp547
g3
I0
sg4
I0
sg5
I0
sg6
I0
sg7
I0
sg8
I0
sg9
I0
sg10
I0
sg11
I0
sg12
I0
sg13
I0
sg14
I0
sg15
I0
sg2
I0
sg16
I0
sg18
I0
sg19
I0
sg20
I0
sg21
I0
sg22
I0
sg23
I1
sg24
I0
sg17
I0
sg25
I0
sa(dp548
g3
I0
sg4
I0
sg10
I0
sg5
I0
sg7
I0
sg8
I1
sg11
I0
sg9
I0
sg6
I0
sg12
I0
sg13
I0
sg14
I0
sg25
I0
sg21
I0
sg2
I0
sg16
I0
sg18
I0
sg19
I0
sg15
I0
sg22
I0
sg23
I0
sg24
I0
sg17
I0
sg20
I0
sa(dp549
g3
I0
sg4
I1
sg5
I0
sg6
I0
sg7
I0
sg8
I0
sg9
I0
sg10
I0
sg11
I0
sg12
I0
sg13
I0
sg14
I0
sg24
I0
sg15
I0
sg2
I0
sg16
I0
sg18
I0
sg19
I0
sg21
I0
sg22
I0
sg23
I0
sg25
I0
sg17
I0
sg20
I0
sa(dp550
g3
I0
sg4
I0
sg10
I0
sg5
I0
sg7
I0
sg8
I1
sg11
I0
sg9
I0
sg6
I0
sg12
I0
sg13
I0
sg14
I0
sg21
I0
sg2
I0
sg16
I0
sg18
I0
sg19
I0
sg20
I0
sg15
I0
sg22
I0
sg23
I0
sg24
I0
sg17
I0
sg25
I0
sa(dp551
g3
I0
sg4
I0
sg5
I0
sg6
I1
sg7
I0
sg8
I0
sg9
I0
sg10
I0
sg11
I0
sg12
I0
sg13
I0
sg14
I0
sg25
I0
sg15
I0
sg2
I0
sg16
I0
sg18
I0
sg19
I0
sg21
I0
sg22
I0
sg23
I0
sg24
I0
sg17
I0
sg20
I0
sa(dp552
g3
I0
sg4
I0
sg10
I0
sg5
I0
sg7
I1
sg8
I0
sg11
I0
sg9
I0
sg6
I0
sg12
I0
sg13
I0
sg14
I0
sg24
I0
sg21
I0
sg2
I0
sg16
I0
sg18
I0
sg19
I0
sg15
I0
sg22
I0
sg23
I0
sg25
I0
sg17
I0
sg20
I0
sa(dp553
g3
I0
sg4
I0
sg5
I0
sg6
I0
sg7
I0
sg8
I0
sg9
I0
sg10
I0
sg11
I0
sg12
I0
sg13
I0
sg14
I0
sg15
I1
sg2
I0
sg16
I0
sg18
I0
sg19
I0
sg20
I0
sg21
I0
sg22
I0
sg23
I0
sg24
I0
sg17
I0
sg25
I0
sa(dp554
g3
I0
sg4
I0
sg10
I0
sg5
I0
sg7
I0
sg8
I1
sg11
I0
sg9
I0
sg6
I0
sg12
I0
sg13
I0
sg14
I0
sg25
I0
sg21
I0
sg2
I0
sg16
I0
sg18
I0
sg19
I0
sg15
I0
sg22
I0
sg23
I0
sg24
I0
sg17
I0
sg20
I0
sa(dp555
g3
I0
sg4
I0
sg5
I0
sg6
I0
sg7
I0
sg8
I0
sg9
I0
sg10
I0
sg11
I0
sg12
I0
sg13
I0
sg14
I0
sg24
I0
sg15
I0
sg2
I0
sg16
I1
sg18
I0
sg19
I0
sg21
I0
sg22
I0
sg23
I0
sg25
I0
sg17
I0
sg20
I0
sa(dp556
g3
I0
sg4
I0
sg10
I0
sg5
I0
sg7
I0
sg8
I0
sg11
I0
sg9
I0
sg6
I0
sg12
I0
sg13
I0
sg14
I0
sg21
I0
sg2
I0
sg16
I0
sg18
I0
sg19
I0
sg20
I0
sg15
I0
sg22
I0
sg23
I0
sg24
I0
sg17
I0
sg25
I1
sa(dp557
g3
I0
sg4
I0
sg5
I0
sg6
I0
sg7
I0
sg8
I0
sg9
I0
sg10
I0
sg11
I0
sg12
I0
sg13
I0
sg14
I1
sg25
I0
sg15
I0
sg2
I0
sg16
I0
sg18
I0
sg19
I0
sg21
I0
sg22
I0
sg23
I0
sg24
I0
sg17
I0
sg20
I0
sa(dp558
g3
I0
sg4
I0
sg10
I0
sg5
I0
sg7
I0
sg8
I0
sg11
I0
sg9
I0
sg6
I0
sg12
I0
sg13
I0
sg14
I0
sg24
I0
sg21
I0
sg2
I0
sg16
I0
sg18
I0
sg19
I1
sg15
I0
sg22
I0
sg23
I0
sg25
I0
sg17
I0
sg20
I0
sa(dp559
g3
I0
sg4
I0
sg5
I0
sg6
I0
sg7
I0
sg8
I0
sg9
I0
sg10
I0
sg11
I0
sg12
I0
sg13
I0
sg14
I0
sg15
I0
sg2
I0
sg16
I0
sg18
I0
sg19
I0
sg20
I0
sg21
I0
sg22
I0
sg23
I0
sg24
I0
sg17
I0
sg25
I1
sa(dp560
g3
I0
sg4
I0
sg10
I0
sg5
I0
sg7
I0
sg8
I0
sg11
I0
sg9
I0
sg6
I0
sg12
I0
sg13
I0
sg14
I0
sg25
I0
sg21
I0
sg2
I0
sg16
I0
sg18
I0
sg19
I0
sg15
I1
sg22
I0
sg23
I0
sg24
I0
sg17
I0
sg20
I0
sa(dp561
g3
I0
sg4
I0
sg5
I0
sg6
I0
sg7
I1
sg8
I0
sg9
I0
sg10
I0
sg11
I0
sg12
I0
sg13
I0
sg14
I0
sg24
I0
sg15
I0
sg2
I0
sg16
I0
sg18
I0
sg19
I0
sg21
I0
sg22
I0
sg23
I0
sg25
I0
sg17
I0
sg20
I0
sa(dp562
g3
I0
sg4
I0
sg10
I0
sg5
I0
sg7
I0
sg8
I1
sg11
I0
sg9
I0
sg6
I0
sg12
I0
sg13
I0
sg14
I0
sg21
I0
sg2
I0
sg16
I0
sg18
I0
sg19
I0
sg20
I0
sg15
I0
sg22
I0
sg23
I0
sg24
I0
sg17
I0
sg25
I0
sa(dp563
g3
I0
sg4
I0
sg5
I0
sg6
I0
sg7
I0
sg8
I0
sg9
I0
sg10
I0
sg11
I0
sg12
I0
sg13
I0
sg14
I0
sg25
I0
sg15
I0
sg2
I0
sg16
I0
sg18
I0
sg19
I0
sg21
I0
sg22
I0
sg23
I1
sg24
I0
sg17
I0
sg20
I0
sa(dp564
g3
I0
sg4
I0
sg10
I0
sg5
I0
sg7
I0
sg8
I0
sg11
I0
sg9
I0
sg6
I1
sg12
I0
sg13
I0
sg14
I0
sg24
I0
sg21
I0
sg2
I0
sg16
I0
sg18
I0
sg19
I0
sg15
I0
sg22
I0
sg23
I0
sg25
I0
sg17
I0
sg20
I0
sa(dp565
g3
I0
sg4
I0
sg5
I0
sg6
I0
sg7
I0
sg8
I0
sg9
I0
sg10
I0
sg11
I0
sg12
I0
sg13
I0
sg14
I0
sg15
I0
sg2
I0
sg16
I0
sg18
I0
sg19
I0
sg20
I0
sg21
I0
sg22
I0
sg23
I0
sg24
I0
sg17
I1
sg25
I0
sa(dp566
g3
I0
sg4
I0
sg10
I0
sg5
I0
sg7
I0
sg8
I1
sg11
I0
sg9
I0
sg6
I0
sg12
I0
sg13
I0
sg14
I0
sg25
I0
sg21
I0
sg2
I0
sg16
I0
sg18
I0
sg19
I0
sg15
I0
sg22
I0
sg23
I0
sg24
I0
sg17
I0
sg20
I0
sa(dp567
g3
I0
sg4
I0
sg5
I0
sg6
I0
sg7
I1
sg8
I0
sg9
I0
sg10
I0
sg11
I0
sg12
I0
sg13
I0
sg14
I0
sg24
I0
sg15
I0
sg2
I0
sg16
I0
sg18
I0
sg19
I0
sg21
I0
sg22
I0
sg23
I0
sg25
I0
sg17
I0
sg20
I0
sa(dp568
g3
I0
sg4
I0
sg10
I0
sg5
I0
sg7
I0
sg8
I0
sg11
I0
sg9
I0
sg6
I0
sg12
I1
sg13
I0
sg14
I0
sg21
I0
sg2
I0
sg16
I0
sg18
I0
sg19
I0
sg20
I0
sg15
I0
sg22
I0
sg23
I0
sg24
I0
sg17
I0
sg25
I0
sa(dp569
g3
I0
sg4
I0
sg5
I0
sg6
I0
sg7
I0
sg8
I1
sg9
I0
sg10
I0
sg11
I0
sg12
I0
sg13
I0
sg14
I0
sg25
I0
sg15
I0
sg2
I0
sg16
I0
sg18
I0
sg19
I0
sg21
I0
sg22
I0
sg23
I0
sg24
I0
sg17
I0
sg20
I0
sa(dp570
g3
I0
sg4
I0
sg10
I0
sg5
I0
sg7
I1
sg8
I0
sg11
I0
sg9
I0
sg6
I0
sg12
I0
sg13
I0
sg14
I0
sg24
I0
sg21
I0
sg2
I0
sg16
I0
sg18
I0
sg19
I0
sg15
I0
sg22
I0
sg23
I0
sg25
I0
sg17
I0
sg20
I0
sa(dp571
g3
I0
sg4
I0
sg5
I0
sg6
I1
sg7
I0
sg8
I0
sg9
I0
sg10
I0
sg11
I0
sg12
I0
sg13
I0
sg14
I0
sg15
I0
sg2
I0
sg16
I0
sg18
I0
sg19
I0
sg20
I0
sg21
I0
sg22
I0
sg23
I0
sg24
I0
sg17
I0
sg25
I0
sa(dp572
g3
I0
sg4
I0
sg10
I0
sg5
I0
sg7
I1
sg8
I0
sg11
I0
sg9
I0
sg6
I0
sg12
I0
sg13
I0
sg14
I0
sg25
I0
sg21
I0
sg2
I0
sg16
I0
sg18
I0
sg19
I0
sg15
I0
sg22
I0
sg23
I0
sg24
I0
sg17
I0
sg20
I0
sa(dp573
g3
I0
sg4
I0
sg5
I0
sg6
I0
sg7
I0
sg8
I1
sg9
I0
sg10
I0
sg11
I0
sg12
I0
sg13
I0
sg14
I0
sg24
I0
sg15
I0
sg2
I0
sg16
I0
sg18
I0
sg19
I0
sg21
I0
sg22
I0
sg23
I0
sg25
I0
sg17
I0
sg20
I0
sa(dp574
g3
I0
sg4
I0
sg10
I0
sg5
I0
sg7
I0
sg8
I0
sg11
I0
sg9
I0
sg6
I0
sg12
I0
sg13
I0
sg14
I0
sg21
I0
sg2
I0
sg16
I0
sg18
I0
sg19
I1
sg20
I0
sg15
I0
sg22
I0
sg23
I0
sg24
I0
sg17
I0
sg25
I0
sa(dp575
g3
I0
sg4
I0
sg5
I0
sg6
I0
sg7
I0
sg8
I1
sg9
I0
sg10
I0
sg11
I0
sg12
I0
sg13
I0
sg14
I0
sg25
I0
sg15
I0
sg2
I0
sg16
I0
sg18
I0
sg19
I0
sg21
I0
sg22
I0
sg23
I0
sg24
I0
sg17
I0
sg20
I0
sa(dp576
g3
I0
sg4
I0
sg10
I0
sg5
I0
sg7
I0
sg8
I1
sg11
I0
sg9
I0
sg6
I0
sg12
I0
sg13
I0
sg14
I0
sg24
I0
sg21
I0
sg2
I0
sg16
I0
sg18
I0
sg19
I0
sg15
I0
sg22
I0
sg23
I0
sg25
I0
sg17
I0
sg20
I0
sa(dp577
g3
I1
sg4
I0
sg5
I0
sg6
I0
sg7
I0
sg8
I0
sg9
I0
sg10
I0
sg11
I0
sg12
I0
sg13
I0
sg14
I0
sg15
I0
sg2
I0
sg16
I0
sg18
I0
sg19
I0
sg20
I0
sg21
I0
sg22
I0
sg23
I0
sg24
I0
sg17
I0
sg25
I0
sa(dp578
g3
I0
sg4
I0
sg10
I0
sg5
I0
sg7
I0
sg8
I0
sg11
I0
sg9
I0
sg6
I0
sg12
I0
sg13
I0
sg14
I1
sg25
I0
sg21
I0
sg2
I0
sg16
I0
sg18
I0
sg19
I0
sg15
I0
sg22
I0
sg23
I0
sg24
I0
sg17
I0
sg20
I0
sa(dp579
g3
I0
sg4
I0
sg5
I0
sg6
I0
sg7
I0
sg8
I0
sg9
I1
sg10
I0
sg11
I0
sg12
I0
sg13
I0
sg14
I0
sg24
I0
sg15
I0
sg2
I0
sg16
I0
sg18
I0
sg19
I0
sg21
I0
sg22
I0
sg23
I0
sg25
I0
sg17
I0
sg20
I0
sa(dp580
g3
I0
sg4
I0
sg10
I0
sg5
I0
sg7
I0
sg8
I0
sg11
I0
sg9
I0
sg6
I0
sg12
I0
sg13
I0
sg14
I1
sg21
I0
sg2
I0
sg16
I0
sg18
I0
sg19
I0
sg20
I0
sg15
I0
sg22
I0
sg23
I0
sg24
I0
sg17
I0
sg25
I0
sa(dp581
g3
I0
sg4
I0
sg5
I0
sg6
I0
sg7
I0
sg8
I0
sg9
I0
sg10
I0
sg11
I0
sg12
I0
sg13
I0
sg14
I0
sg25
I0
sg15
I0
sg2
I0
sg16
I0
sg18
I0
sg19
I0
sg21
I0
sg22
I1
sg23
I0
sg24
I0
sg17
I0
sg20
I0
sa(dp582
g3
I0
sg4
I0
sg10
I0
sg5
I0
sg7
I0
sg8
I0
sg11
I0
sg9
I0
sg6
I0
sg12
I0
sg13
I0
sg14
I0
sg24
I0
sg21
I0
sg2
I0
sg16
I0
sg18
I0
sg19
I0
sg15
I1
sg22
I0
sg23
I0
sg25
I0
sg17
I0
sg20
I0
sa(dp583
g3
I0
sg4
I0
sg5
I0
sg6
I0
sg7
I1
sg8
I0
sg9
I0
sg10
I0
sg11
I0
sg12
I0
sg13
I0
sg14
I0
sg15
I0
sg2
I0
sg16
I0
sg18
I0
sg19
I0
sg20
I0
sg21
I0
sg22
I0
sg23
I0
sg24
I0
sg17
I0
sg25
I0
sa(dp584
g3
I0
sg4
I0
sg10
I0
sg5
I0
sg7
I0
sg8
I0
sg11
I0
sg9
I0
sg6
I0
sg12
I0
sg13
I0
sg14
I0
sg25
I0
sg21
I0
sg2
I0
sg16
I0
sg18
I0
sg19
I1
sg15
I0
sg22
I0
sg23
I0
sg24
I0
sg17
I0
sg20
I0
sa(dp585
g3
I0
sg4
I0
sg5
I0
sg6
I0
sg7
I0
sg8
I0
sg9
I0
sg10
I0
sg11
I0
sg12
I1
sg13
I0
sg14
I0
sg24
I0
sg15
I0
sg2
I0
sg16
I0
sg18
I0
sg19
I0
sg21
I0
sg22
I0
sg23
I0
sg25
I0
sg17
I0
sg20
I0
sa(dp586
g3
I0
sg4
I0
sg10
I0
sg5
I0
sg7
I0
sg8
I1
sg11
I0
sg9
I0
sg6
I0
sg12
I0
sg13
I0
sg14
I0
sg21
I0
sg2
I0
sg16
I0
sg18
I0
sg19
I0
sg20
I0
sg15
I0
sg22
I0
sg23
I0
sg24
I0
sg17
I0
sg25
I0
sa(dp587
g3
I0
sg4
I0
sg5
I0
sg6
I0
sg7
I0
sg8
I0
sg9
I0
sg10
I0
sg11
I0
sg12
I0
sg13
I0
sg14
I0
sg25
I0
sg15
I0
sg2
I1
sg16
I0
sg18
I0
sg19
I0
sg21
I0
sg22
I0
sg23
I0
sg24
I0
sg17
I0
sg20
I0
sa(dp588
g3
I0
sg4
I0
sg10
I0
sg5
I0
sg7
I0
sg8
I1
sg11
I0
sg9
I0
sg6
I0
sg12
I0
sg13
I0
sg14
I0
sg24
I0
sg21
I0
sg2
I0
sg16
I0
sg18
I0
sg19
I0
sg15
I0
sg22
I0
sg23
I0
sg25
I0
sg17
I0
sg20
I0
sa(dp589
g3
I0
sg4
I0
sg5
I0
sg6
I0
sg7
I1
sg8
I0
sg9
I0
sg10
I0
sg11
I0
sg12
I0
sg13
I0
sg14
I0
sg15
I0
sg2
I0
sg16
I0
sg18
I0
sg19
I0
sg20
I0
sg21
I0
sg22
I0
sg23
I0
sg24
I0
sg17
I0
sg25
I0
sa(dp590
g3
I0
sg4
I0
sg10
I0
sg5
I0
sg7
I0
sg8
I0
sg11
I0
sg9
I0
sg6
I0
sg12
I1
sg13
I0
sg14
I0
sg25
I0
sg21
I0
sg2
I0
sg16
I0
sg18
I0
sg19
I0
sg15
I0
sg22
I0
sg23
I0
sg24
I0
sg17
I0
sg20
I0
sa(dp591
g3
I0
sg4
I0
sg5
I0
sg6
I0
sg7
I0
sg8
I0
sg9
I0
sg10
I0
sg11
I0
sg12
I0
sg13
I0
sg14
I0
sg24
I0
sg15
I0
sg2
I0
sg16
I0
sg18
I0
sg19
I1
sg21
I0
sg22
I0
sg23
I0
sg25
I0
sg17
I0
sg20
I0
sa(dp592
g3
I0
sg4
I0
sg10
I0
sg5
I0
sg7
I0
sg8
I1
sg11
I0
sg9
I0
sg6
I0
sg12
I0
sg13
I0
sg14
I0
sg21
I0
sg2
I0
sg16
I0
sg18
I0
sg19
I0
sg20
I0
sg15
I0
sg22
I0
sg23
I0
sg24
I0
sg17
I0
sg25
I0
sa(dp593
g3
I0
sg4
I0
sg5
I0
sg6
I0
sg7
I0
sg8
I0
sg9
I0
sg10
I0
sg11
I0
sg12
I1
sg13
I0
sg14
I0
sg25
I0
sg15
I0
sg2
I0
sg16
I0
sg18
I0
sg19
I0
sg21
I0
sg22
I0
sg23
I0
sg24
I0
sg17
I0
sg20
I0
sa(dp594
g3
I0
sg4
I0
sg10
I0
sg5
I0
sg7
I0
sg8
I1
sg11
I0
sg9
I0
sg6
I0
sg12
I0
sg13
I0
sg14
I0
sg24
I0
sg21
I0
sg2
I0
sg16
I0
sg18
I0
sg19
I0
sg15
I0
sg22
I0
sg23
I0
sg25
I0
sg17
I0
sg20
I0
sa(dp595
g3
I0
sg4
I0
sg5
I0
sg6
I0
sg7
I1
sg8
I0
sg9
I0
sg10
I0
sg11
I0
sg12
I0
sg13
I0
sg14
I0
sg15
I0
sg2
I0
sg16
I0
sg18
I0
sg19
I0
sg20
I0
sg21
I0
sg22
I0
sg23
I0
sg24
I0
sg17
I0
sg25
I0
sa(dp596
g3
I0
sg4
I0
sg10
I0
sg5
I0
sg7
I0
sg8
I1
sg11
I0
sg9
I0
sg6
I0
sg12
I0
sg13
I0
sg14
I0
sg25
I0
sg21
I0
sg2
I0
sg16
I0
sg18
I0
sg19
I0
sg15
I0
sg22
I0
sg23
I0
sg24
I0
sg17
I0
sg20
I0
sa(dp597
g3
I0
sg4
I0
sg5
I0
sg6
I0
sg7
I0
sg8
I0
sg9
I0
sg10
I0
sg11
I0
sg12
I0
sg13
I0
sg14
I0
sg24
I0
sg15
I0
sg2
I0
sg16
I0
sg18
I0
sg19
I0
sg21
I1
sg22
I0
sg23
I0
sg25
I0
sg17
I0
sg20
I0
sa(dp598
g3
I0
sg4
I0
sg10
I0
sg5
I0
sg7
I0
sg8
I0
sg11
I0
sg9
I0
sg6
I0
sg12
I1
sg13
I0
sg14
I0
sg21
I0
sg2
I0
sg16
I0
sg18
I0
sg19
I0
sg20
I0
sg15
I0
sg22
I0
sg23
I0
sg24
I0
sg17
I0
sg25
I0
sa(dp599
g3
I0
sg4
I0
sg5
I0
sg6
I0
sg7
I0
sg8
I1
sg9
I0
sg10
I0
sg11
I0
sg12
I0
sg13
I0
sg14
I0
sg25
I0
sg15
I0
sg2
I0
sg16
I0
sg18
I0
sg19
I0
sg21
I0
sg22
I0
sg23
I0
sg24
I0
sg17
I0
sg20
I0
sa(dp600
g3
I0
sg4
I0
sg10
I0
sg5
I0
sg7
I0
sg8
I0
sg11
I0
sg9
I0
sg6
I0
sg12
I1
sg13
I0
sg14
I0
sg24
I0
sg21
I0
sg2
I0
sg16
I0
sg18
I0
sg19
I0
sg15
I0
sg22
I0
sg23
I0
sg25
I0
sg17
I0
sg20
I0
sa(dp601
g3
I0
sg4
I0
sg5
I0
sg6
I0
sg7
I0
sg8
I0
sg9
I1
sg10
I0
sg11
I0
sg12
I0
sg13
I0
sg14
I0
sg15
I0
sg2
I0
sg16
I0
sg18
I0
sg19
I0
sg20
I0
sg21
I0
sg22
I0
sg23
I0
sg24
I0
sg17
I0
sg25
I0
sa(dp602
g3
I0
sg4
I0
sg10
I0
sg5
I0
sg7
I0
sg8
I1
sg11
I0
sg9
I0
sg6
I0
sg12
I0
sg13
I0
sg14
I0
sg25
I0
sg21
I0
sg2
I0
sg16
I0
sg18
I0
sg19
I0
sg15
I0
sg22
I0
sg23
I0
sg24
I0
sg17
I0
sg20
I0
sa(dp603
g3
I0
sg4
I0
sg5
I0
sg6
I0
sg7
I0
sg8
I1
sg9
I0
sg10
I0
sg11
I0
sg12
I0
sg13
I0
sg14
I0
sg24
I0
sg15
I0
sg2
I0
sg16
I0
sg18
I0
sg19
I0
sg21
I0
sg22
I0
sg23
I0
sg25
I0
sg17
I0
sg20
I0
sa(dp604
g3
I0
sg4
I0
sg10
I0
sg5
I0
sg7
I1
sg8
I0
sg11
I0
sg9
I0
sg6
I0
sg12
I0
sg13
I0
sg14
I0
sg21
I0
sg2
I0
sg16
I0
sg18
I0
sg19
I0
sg20
I0
sg15
I0
sg22
I0
sg23
I0
sg24
I0
sg17
I0
sg25
I0
sa(dp605
g3
I0
sg4
I0
sg5
I0
sg6
I0
sg7
I0
sg8
I0
sg9
I0
sg10
I0
sg11
I0
sg12
I0
sg13
I0
sg14
I0
sg25
I0
sg15
I1
sg2
I0
sg16
I0
sg18
I0
sg19
I0
sg21
I0
sg22
I0
sg23
I0
sg24
I0
sg17
I0
sg20
I0
sa(dp606
g3
I0
sg4
I1
sg10
I0
sg5
I0
sg7
I0
sg8
I0
sg11
I0
sg9
I0
sg6
I0
sg12
I0
sg13
I0
sg14
I0
sg24
I0
sg21
I0
sg2
I0
sg16
I0
sg18
I0
sg19
I0
sg15
I0
sg22
I0
sg23
I0
sg25
I0
sg17
I0
sg20
I0
sa(dp607
g3
I0
sg4
I0
sg5
I0
sg6
I0
sg7
I0
sg8
I0
sg9
I0
sg10
I0
sg11
I1
sg12
I0
sg13
I0
sg14
I0
sg15
I0
sg2
I0
sg16
I0
sg18
I0
sg19
I0
sg20
I0
sg21
I0
sg22
I0
sg23
I0
sg24
I0
sg17
I0
sg25
I0
sa(dp608
g3
I0
sg4
I0
sg10
I0
sg5
I0
sg7
I0
sg8
I0
sg11
I0
sg9
I0
sg6
I0
sg12
I0
sg13
I0
sg14
I0
sg25
I0
sg21
I0
sg2
I0
sg16
I0
sg18
I0
sg19
I0
sg15
I1
sg22
I0
sg23
I0
sg24
I0
sg17
I0
sg20
I0
sa(dp609
g3
I0
sg4
I0
sg5
I0
sg6
I0
sg7
I0
sg8
I1
sg9
I0
sg10
I0
sg11
I0
sg12
I0
sg13
I0
sg14
I0
sg24
I0
sg15
I0
sg2
I0
sg16
I0
sg18
I0
sg19
I0
sg21
I0
sg22
I0
sg23
I0
sg25
I0
sg17
I0
sg20
I0
sa(dp610
g3
I0
sg4
I0
sg10
I0
sg5
I0
sg7
I0
sg8
I0
sg11
I0
sg9
I0
sg6
I0
sg12
I1
sg13
I0
sg14
I0
sg21
I0
sg2
I0
sg16
I0
sg18
I0
sg19
I0
sg20
I0
sg15
I0
sg22
I0
sg23
I0
sg24
I0
sg17
I0
sg25
I0
sa(dp611
g3
I0
sg4
I0
sg5
I0
sg6
I0
sg7
I0
sg8
I0
sg9
I0
sg10
I0
sg11
I0
sg12
I0
sg13
I0
sg14
I0
sg25
I0
sg15
I0
sg2
I0
sg16
I1
sg18
I0
sg19
I0
sg21
I0
sg22
I0
sg23
I0
sg24
I0
sg17
I0
sg20
I0
sa(dp612
g3
I0
sg4
I0
sg10
I0
sg5
I0
sg7
I0
sg8
I0
sg11
I0
sg9
I0
sg6
I0
sg12
I0
sg13
I0
sg14
I0
sg24
I0
sg21
I0
sg2
I0
sg16
I0
sg18
I0
sg19
I0
sg15
I0
sg22
I0
sg23
I0
sg25
I1
sg17
I0
sg20
I0
sa(dp613
g3
I0
sg4
I0
sg5
I0
sg6
I0
sg7
I0
sg8
I0
sg9
I0
sg10
I0
sg11
I0
sg12
I0
sg13
I0
sg14
I0
sg15
I0
sg2
I1
sg16
I0
sg18
I0
sg19
I0
sg20
I0
sg21
I0
sg22
I0
sg23
I0
sg24
I0
sg17
I0
sg25
I0
sa(dp614
g3
I0
sg4
I0
sg10
I0
sg5
I0
sg7
I0
sg8
I0
sg11
I0
sg9
I0
sg6
I0
sg12
I0
sg13
I0
sg14
I1
sg25
I0
sg21
I0
sg2
I0
sg16
I0
sg18
I0
sg19
I0
sg15
I0
sg22
I0
sg23
I0
sg24
I0
sg17
I0
sg20
I0
sa(dp615
g3
I0
sg4
I0
sg5
I0
sg6
I0
sg7
I0
sg8
I0
sg9
I0
sg10
I0
sg11
I0
sg12
I0
sg13
I0
sg14
I0
sg24
I0
sg15
I0
sg2
I0
sg16
I0
sg18
I0
sg19
I1
sg21
I0
sg22
I0
sg23
I0
sg25
I0
sg17
I0
sg20
I0
sa(dp616
g3
I0
sg4
I0
sg10
I0
sg5
I0
sg7
I0
sg8
I0
sg11
I0
sg9
I0
sg6
I0
sg12
I0
sg13
I0
sg14
I0
sg21
I0
sg2
I0
sg16
I0
sg18
I0
sg19
I0
sg20
I0
sg15
I1
sg22
I0
sg23
I0
sg24
I0
sg17
I0
sg25
I0
sa(dp617
g3
I0
sg4
I0
sg5
I0
sg6
I0
sg7
I0
sg8
I0
sg9
I0
sg10
I0
sg11
I0
sg12
I0
sg13
I0
sg14
I0
sg25
I0
sg15
I0
sg2
I0
sg16
I0
sg18
I0
sg19
I0
sg21
I0
sg22
I0
sg23
I0
sg24
I1
sg17
I0
sg20
I0
sa(dp618
g3
I0
sg4
I0
sg10
I0
sg5
I0
sg7
I0
sg8
I1
sg11
I0
sg9
I0
sg6
I0
sg12
I0
sg13
I0
sg14
I0
sg24
I0
sg21
I0
sg2
I0
sg16
I0
sg18
I0
sg19
I0
sg15
I0
sg22
I0
sg23
I0
sg25
I0
sg17
I0
sg20
I0
sa(dp619
g3
I0
sg4
I0
sg5
I0
sg6
I0
sg7
I0
sg8
I0
sg9
I0
sg10
I0
sg11
I0
sg12
I0
sg13
I0
sg14
I0
sg15
I0
sg2
I0
sg16
I0
sg18
I0
sg19
I0
sg20
I0
sg21
I0
sg22
I1
sg23
I0
sg24
I0
sg17
I0
sg25
I0
sa(dp620
g3
I0
sg4
I0
sg10
I0
sg5
I0
sg7
I0
sg8
I0
sg11
I0
sg9
I0
sg6
I1
sg12
I0
sg13
I0
sg14
I0
sg25
I0
sg21
I0
sg2
I0
sg16
I0
sg18
I0
sg19
I0
sg15
I0
sg22
I0
sg23
I0
sg24
I0
sg17
I0
sg20
I0
sa(dp621
g3
I0
sg4
I0
sg5
I0
sg6
I0
sg7
I0
sg8
I1
sg9
I0
sg10
I0
sg11
I0
sg12
I0
sg13
I0
sg14
I0
sg24
I0
sg15
I0
sg2
I0
sg16
I0
sg18
I0
sg19
I0
sg21
I0
sg22
I0
sg23
I0
sg25
I0
sg17
I0
sg20
I0
sa(dp622
g3
I0
sg4
I0
sg10
I0
sg5
I0
sg7
I1
sg8
I0
sg11
I0
sg9
I0
sg6
I0
sg12
I0
sg13
I0
sg14
I0
sg21
I0
sg2
I0
sg16
I0
sg18
I0
sg19
I0
sg20
I0
sg15
I0
sg22
I0
sg23
I0
sg24
I0
sg17
I0
sg25
I0
sa(dp623
g3
I0
sg4
I0
sg5
I0
sg6
I0
sg7
I0
sg8
I0
sg9
I0
sg10
I0
sg11
I0
sg12
I1
sg13
I0
sg14
I0
sg25
I0
sg15
I0
sg2
I0
sg16
I0
sg18
I0
sg19
I0
sg21
I0
sg22
I0
sg23
I0
sg24
I0
sg17
I0
sg20
I0
sa(dp624
g3
I0
sg4
I0
sg10
I0
sg5
I0
sg7
I0
sg8
I1
sg11
I0
sg9
I0
sg6
I0
sg12
I0
sg13
I0
sg14
I0
sg24
I0
sg21
I0
sg2
I0
sg16
I0
sg18
I0
sg19
I0
sg15
I0
sg22
I0
sg23
I0
sg25
I0
sg17
I0
sg20
I0
sa(dp625
g3
I0
sg4
I0
sg5
I0
sg6
I0
sg7
I1
sg8
I0
sg9
I0
sg10
I0
sg11
I0
sg12
I0
sg13
I0
sg14
I0
sg15
I0
sg2
I0
sg16
I0
sg18
I0
sg19
I0
sg20
I0
sg21
I0
sg22
I0
sg23
I0
sg24
I0
sg17
I0
sg25
I0
sa(dp626
g3
I0
sg4
I0
sg10
I0
sg5
I0
sg7
I0
sg8
I0
sg11
I0
sg9
I0
sg6
I0
sg12
I0
sg13
I0
sg14
I0
sg25
I0
sg21
I1
sg2
I0
sg16
I0
sg18
I0
sg19
I0
sg15
I0
sg22
I0
sg23
I0
sg24
I0
sg17
I0
sg20
I0
sa(dp627
g3
I0
sg4
I0
sg5
I0
sg6
I0
sg7
I0
sg8
I0
sg9
I0
sg10
I0
sg11
I0
sg12
I0
sg13
I0
sg14
I0
sg24
I0
sg15
I0
sg2
I0
sg16
I0
sg18
I0
sg19
I0
sg21
I0
sg22
I0
sg23
I0
sg25
I1
sg17
I0
sg20
I0
sa(dp628
g3
I0
sg4
I0
sg10
I0
sg5
I0
sg7
I0
sg8
I1
sg11
I0
sg9
I0
sg6
I0
sg12
I0
sg13
I0
sg14
I0
sg21
I0
sg2
I0
sg16
I0
sg18
I0
sg19
I0
sg20
I0
sg15
I0
sg22
I0
sg23
I0
sg24
I0
sg17
I0
sg25
I0
sa(dp629
g3
I0
sg4
I0
sg5
I0
sg6
I0
sg7
I1
sg8
I0
sg9
I0
sg10
I0
sg11
I0
sg12
I0
sg13
I0
sg14
I0
sg25
I0
sg15
I0
sg2
I0
sg16
I0
sg18
I0
sg19
I0
sg21
I0
sg22
I0
sg23
I0
sg24
I0
sg17
I0
sg20
I0
sa(dp630
g3
I0
sg4
I0
sg10
I0
sg5
I0
sg7
I1
sg8
I0
sg11
I0
sg9
I0
sg6
I0
sg12
I0
sg13
I0
sg14
I0
sg24
I0
sg21
I0
sg2
I0
sg16
I0
sg18
I0
sg19
I0
sg15
I0
sg22
I0
sg23
I0
sg25
I0
sg17
I0
sg20
I0
sa(dp631
g3
I0
sg4
I0
sg5
I0
sg6
I0
sg7
I1
sg8
I0
sg9
I0
sg10
I0
sg11
I0
sg12
I0
sg13
I0
sg14
I0
sg15
I0
sg2
I0
sg16
I0
sg18
I0
sg19
I0
sg20
I0
sg21
I0
sg22
I0
sg23
I0
sg24
I0
sg17
I0
sg25
I0
sa(dp632
g3
I0
sg4
I0
sg10
I0
sg5
I0
sg7
I0
sg8
I0
sg11
I0
sg9
I0
sg6
I0
sg12
I0
sg13
I0
sg14
I0
sg25
I0
sg21
I0
sg2
I1
sg16
I0
sg18
I0
sg19
I0
sg15
I0
sg22
I0
sg23
I0
sg24
I0
sg17
I0
sg20
I0
sa(dp633
g3
I0
sg4
I0
sg5
I0
sg6
I0
sg7
I0
sg8
I0
sg9
I0
sg10
I0
sg11
I0
sg12
I1
sg13
I0
sg14
I0
sg24
I0
sg15
I0
sg2
I0
sg16
I0
sg18
I0
sg19
I0
sg21
I0
sg22
I0
sg23
I0
sg25
I0
sg17
I0
sg20
I0
sa(dp634
g3
I0
sg4
I0
sg10
I0
sg5
I0
sg7
I0
sg8
I0
sg11
I0
sg9
I0
sg6
I0
sg12
I1
sg13
I0
sg14
I0
sg21
I0
sg2
I0
sg16
I0
sg18
I0
sg19
I0
sg20
I0
sg15
I0
sg22
I0
sg23
I0
sg24
I0
sg17
I0
sg25
I0
sa(dp635
g3
I0
sg4
I0
sg5
I0
sg6
I0
sg7
I0
sg8
I1
sg9
I0
sg10
I0
sg11
I0
sg12
I0
sg13
I0
sg14
I0
sg25
I0
sg15
I0
sg2
I0
sg16
I0
sg18
I0
sg19
I0
sg21
I0
sg22
I0
sg23
I0
sg24
I0
sg17
I0
sg20
I0
sa(dp636
g3
I0
sg4
I0
sg10
I0
sg5
I0
sg7
I0
sg8
I0
sg11
I0
sg9
I0
sg6
I0
sg12
I0
sg13
I0
sg14
I0
sg24
I0
sg21
I0
sg2
I0
sg16
I1
sg18
I0
sg19
I0
sg15
I0
sg22
I0
sg23
I0
sg25
I0
sg17
I0
sg20
I0
sa(dp637
g3
I0
sg4
I0
sg5
I0
sg6
I0
sg7
I0
sg8
I0
sg9
I0
sg10
I0
sg11
I0
sg12
I1
sg13
I0
sg14
I0
sg15
I0
sg2
I0
sg16
I0
sg18
I0
sg19
I0
sg20
I0
sg21
I0
sg22
I0
sg23
I0
sg24
I0
sg17
I0
sg25
I0
sa(dp638
g3
I0
sg4
I0
sg10
I0
sg5
I0
sg7
I0
sg8
I0
sg11
I0
sg9
I0
sg6
I0
sg12
I0
sg13
I0
sg14
I0
sg25
I0
sg21
I0
sg2
I0
sg16
I0
sg18
I0
sg19
I0
sg15
I0
sg22
I1
sg23
I0
sg24
I0
sg17
I0
sg20
I0
sa(dp639
g3
I0
sg4
I0
sg5
I0
sg6
I0
sg7
I0
sg8
I1
sg9
I0
sg10
I0
sg11
I0
sg12
I0
sg13
I0
sg14
I0
sg24
I0
sg15
I0
sg2
I0
sg16
I0
sg18
I0
sg19
I0
sg21
I0
sg22
I0
sg23
I0
sg25
I0
sg17
I0
sg20
I0
sa(dp640
g3
I0
sg4
I0
sg10
I0
sg5
I0
sg7
I0
sg8
I0
sg11
I0
sg9
I0
sg6
I0
sg12
I0
sg13
I0
sg14
I0
sg21
I0
sg2
I0
sg16
I0
sg18
I0
sg19
I0
sg20
I0
sg15
I0
sg22
I0
sg23
I0
sg24
I0
sg17
I0
sg25
I1
sa(dp641
g3
I0
sg4
I0
sg5
I0
sg6
I0
sg7
I0
sg8
I0
sg9
I0
sg10
I0
sg11
I1
sg12
I0
sg13
I0
sg14
I0
sg25
I0
sg15
I0
sg2
I0
sg16
I0
sg18
I0
sg19
I0
sg21
I0
sg22
I0
sg23
I0
sg24
I0
sg17
I0
sg20
I0
sa(dp642
g3
I0
sg4
I0
sg10
I0
sg5
I0
sg7
I1
sg8
I0
sg11
I0
sg9
I0
sg6
I0
sg12
I0
sg13
I0
sg14
I0
sg24
I0
sg21
I0
sg2
I0
sg16
I0
sg18
I0
sg19
I0
sg15
I0
sg22
I0
sg23
I0
sg25
I0
sg17
I0
sg20
I0
sa(dp643
g3
I0
sg4
I0
sg5
I0
sg6
I0
sg7
I0
sg8
I1
sg9
I0
sg10
I0
sg11
I0
sg12
I0
sg13
I0
sg14
I0
sg15
I0
sg2
I0
sg16
I0
sg18
I0
sg19
I0
sg20
I0
sg21
I0
sg22
I0
sg23
I0
sg24
I0
sg17
I0
sg25
I0
sa(dp644
g3
I0
sg4
I0
sg10
I0
sg5
I0
sg7
I1
sg8
I0
sg11
I0
sg9
I0
sg6
I0
sg12
I0
sg13
I0
sg14
I0
sg25
I0
sg21
I0
sg2
I0
sg16
I0
sg18
I0
sg19
I0
sg15
I0
sg22
I0
sg23
I0
sg24
I0
sg17
I0
sg20
I0
sa(dp645
g3
I1
sg4
I0
sg5
I0
sg6
I0
sg7
I0
sg8
I0
sg9
I0
sg10
I0
sg11
I0
sg12
I0
sg13
I0
sg14
I0
sg24
I0
sg15
I0
sg2
I0
sg16
I0
sg18
I0
sg19
I0
sg21
I0
sg22
I0
sg23
I0
sg25
I0
sg17
I0
sg20
I0
sa(dp646
g3
I0
sg4
I0
sg10
I0
sg5
I0
sg7
I0
sg8
I0
sg11
I0
sg9
I0
sg6
I0
sg12
I0
sg13
I0
sg14
I0
sg21
I0
sg2
I1
sg16
I0
sg18
I0
sg19
I0
sg20
I0
sg15
I0
sg22
I0
sg23
I0
sg24
I0
sg17
I0
sg25
I0
sa(dp647
g3
I0
sg4
I0
sg5
I0
sg6
I0
sg7
I0
sg8
I1
sg9
I0
sg10
I0
sg11
I0
sg12
I0
sg13
I0
sg14
I0
sg25
I0
sg15
I0
sg2
I0
sg16
I0
sg18
I0
sg19
I0
sg21
I0
sg22
I0
sg23
I0
sg24
I0
sg17
I0
sg20
I0
sa(dp648
g3
I0
sg4
I0
sg10
I0
sg5
I0
sg7
I0
sg8
I0
sg11
I0
sg9
I1
sg6
I0
sg12
I0
sg13
I0
sg14
I0
sg24
I0
sg21
I0
sg2
I0
sg16
I0
sg18
I0
sg19
I0
sg15
I0
sg22
I0
sg23
I0
sg25
I0
sg17
I0
sg20
I0
sa(dp649
g3
I0
sg4
I0
sg5
I0
sg6
I0
sg7
I0
sg8
I0
sg9
I0
sg10
I0
sg11
I0
sg12
I0
sg13
I0
sg14
I0
sg15
I0
sg2
I0
sg16
I0
sg18
I0
sg19
I1
sg20
I0
sg21
I0
sg22
I0
sg23
I0
sg24
I0
sg17
I0
sg25
I0
sa(dp650
g3
I0
sg4
I0
sg10
I0
sg5
I0
sg7
I0
sg8
I1
sg11
I0
sg9
I0
sg6
I0
sg12
I0
sg13
I0
sg14
I0
sg25
I0
sg21
I0
sg2
I0
sg16
I0
sg18
I0
sg19
I0
sg15
I0
sg22
I0
sg23
I0
sg24
I0
sg17
I0
sg20
I0
sa(dp651
g3
I0
sg4
I0
sg5
I0
sg6
I0
sg7
I0
sg8
I0
sg9
I0
sg10
I0
sg11
I0
sg12
I0
sg13
I0
sg14
I0
sg24
I0
sg15
I0
sg2
I0
sg16
I0
sg18
I0
sg19
I0
sg21
I1
sg22
I0
sg23
I0
sg25
I0
sg17
I0
sg20
I0
sa(dp652
g3
I0
sg4
I0
sg10
I0
sg5
I0
sg7
I0
sg8
I0
sg11
I1
sg9
I0
sg6
I0
sg12
I0
sg13
I0
sg14
I0
sg21
I0
sg2
I0
sg16
I0
sg18
I0
sg19
I0
sg20
I0
sg15
I0
sg22
I0
sg23
I0
sg24
I0
sg17
I0
sg25
I0
sa(dp653
g3
I0
sg4
I0
sg5
I0
sg6
I0
sg7
I0
sg8
I1
sg9
I0
sg10
I0
sg11
I0
sg12
I0
sg13
I0
sg14
I0
sg25
I0
sg15
I0
sg2
I0
sg16
I0
sg18
I0
sg19
I0
sg21
I0
sg22
I0
sg23
I0
sg24
I0
sg17
I0
sg20
I0
sa(dp654
g3
I0
sg4
I0
sg10
I0
sg5
I0
sg7
I1
sg8
I0
sg11
I0
sg9
I0
sg6
I0
sg12
I0
sg13
I0
sg14
I0
sg24
I0
sg21
I0
sg2
I0
sg16
I0
sg18
I0
sg19
I0
sg15
I0
sg22
I0
sg23
I0
sg25
I0
sg17
I0
sg20
I0
sa(dp655
g3
I0
sg4
I0
sg5
I0
sg6
I1
sg7
I0
sg8
I0
sg9
I0
sg10
I0
sg11
I0
sg12
I0
sg13
I0
sg14
I0
sg15
I0
sg2
I0
sg16
I0
sg18
I0
sg19
I0
sg20
I0
sg21
I0
sg22
I0
sg23
I0
sg24
I0
sg17
I0
sg25
I0
sa(dp656
g3
I0
sg4
I0
sg10
I0
sg5
I0
sg7
I0
sg8
I0
sg11
I0
sg9
I0
sg6
I0
sg12
I0
sg13
I0
sg14
I0
sg25
I0
sg21
I1
sg2
I0
sg16
I0
sg18
I0
sg19
I0
sg15
I0
sg22
I0
sg23
I0
sg24
I0
sg17
I0
sg20
I0
sa(dp657
g3
I0
sg4
I0
sg5
I0
sg6
I0
sg7
I0
sg8
I1
sg9
I0
sg10
I0
sg11
I0
sg12
I0
sg13
I0
sg14
I0
sg24
I0
sg15
I0
sg2
I0
sg16
I0
sg18
I0
sg19
I0
sg21
I0
sg22
I0
sg23
I0
sg25
I0
sg17
I0
sg20
I0
sa(dp658
g3
I0
sg4
I0
sg10
I0
sg5
I0
sg7
I0
sg8
I0
sg11
I0
sg9
I0
sg6
I0
sg12
I0
sg13
I0
sg14
I0
sg21
I0
sg2
I1
sg16
I0
sg18
I0
sg19
I0
sg20
I0
sg15
I0
sg22
I0
sg23
I0
sg24
I0
sg17
I0
sg25
I0
sa(dp659
g3
I0
sg4
I0
sg5
I0
sg6
I0
sg7
I1
sg8
I0
sg9
I0
sg10
I0
sg11
I0
sg12
I0
sg13
I0
sg14
I0
sg25
I0
sg15
I0
sg2
I0
sg16
I0
sg18
I0
sg19
I0
sg21
I0
sg22
I0
sg23
I0
sg24
I0
sg17
I0
sg20
I0
sa(dp660
g3
I0
sg4
I0
sg10
I0
sg5
I0
sg7
I0
sg8
I0
sg11
I0
sg9
I0
sg6
I0
sg12
I0
sg13
I0
sg14
I0
sg24
I0
sg21
I0
sg2
I0
sg16
I0
sg18
I0
sg19
I0
sg15
I0
sg22
I1
sg23
I0
sg25
I0
sg17
I0
sg20
I0
sa(dp661
g3
I0
sg4
I0
sg5
I0
sg6
I0
sg7
I0
sg8
I0
sg9
I0
sg10
I0
sg11
I0
sg12
I0
sg13
I0
sg14
I0
sg15
I0
sg2
I0
sg16
I0
sg18
I0
sg19
I0
sg20
I0
sg21
I1
sg22
I0
sg23
I0
sg24
I0
sg17
I0
sg25
I0
sa(dp662
g3
I0
sg4
I0
sg10
I0
sg5
I0
sg7
I0
sg8
I0
sg11
I0
sg9
I0
sg6
I0
sg12
I1
sg13
I0
sg14
I0
sg25
I0
sg21
I0
sg2
I0
sg16
I0
sg18
I0
sg19
I0
sg15
I0
sg22
I0
sg23
I0
sg24
I0
sg17
I0
sg20
I0
sa(dp663
g3
I0
sg4
I0
sg5
I0
sg6
I0
sg7
I0
sg8
I1
sg9
I0
sg10
I0
sg11
I0
sg12
I0
sg13
I0
sg14
I0
sg24
I0
sg15
I0
sg2
I0
sg16
I0
sg18
I0
sg19
I0
sg21
I0
sg22
I0
sg23
I0
sg25
I0
sg17
I0
sg20
I0
sa(dp664
g3
I1
sg4
I0
sg10
I0
sg5
I0
sg7
I0
sg8
I0
sg11
I0
sg9
I0
sg6
I0
sg12
I0
sg13
I0
sg14
I0
sg21
I0
sg2
I0
sg16
I0
sg18
I0
sg19
I0
sg20
I0
sg15
I0
sg22
I0
sg23
I0
sg24
I0
sg17
I0
sg25
I0
sa(dp665
g3
I0
sg4
I0
sg5
I0
sg6
I0
sg7
I0
sg8
I0
sg9
I0
sg10
I0
sg11
I0
sg12
I0
sg13
I0
sg14
I0
sg25
I0
sg15
I0
sg2
I0
sg16
I0
sg18
I0
sg19
I0
sg21
I1
sg22
I0
sg23
I0
sg24
I0
sg17
I0
sg20
I0
sa(dp666
g3
I0
sg4
I0
sg10
I0
sg5
I0
sg7
I0
sg8
I1
sg11
I0
sg9
I0
sg6
I0
sg12
I0
sg13
I0
sg14
I0
sg24
I0
sg21
I0
sg2
I0
sg16
I0
sg18
I0
sg19
I0
sg15
I0
sg22
I0
sg23
I0
sg25
I0
sg17
I0
sg20
I0
sa(dp667
g3
I0
sg4
I0
sg5
I0
sg6
I0
sg7
I0
sg8
I0
sg9
I0
sg10
I0
sg11
I0
sg12
I1
sg13
I0
sg14
I0
sg15
I0
sg2
I0
sg16
I0
sg18
I0
sg19
I0
sg20
I0
sg21
I0
sg22
I0
sg23
I0
sg24
I0
sg17
I0
sg25
I0
sa(dp668
g3
I0
sg4
I0
sg10
I0
sg5
I0
sg7
I0
sg8
I0
sg11
I0
sg9
I0
sg6
I0
sg12
I1
sg13
I0
sg14
I0
sg25
I0
sg21
I0
sg2
I0
sg16
I0
sg18
I0
sg19
I0
sg15
I0
sg22
I0
sg23
I0
sg24
I0
sg17
I0
sg20
I0
sa(dp669
g3
I0
sg4
I0
sg5
I0
sg6
I0
sg7
I1
sg8
I0
sg9
I0
sg10
I0
sg11
I0
sg12
I0
sg13
I0
sg14
I0
sg24
I0
sg15
I0
sg2
I0
sg16
I0
sg18
I0
sg19
I0
sg21
I0
sg22
I0
sg23
I0
sg25
I0
sg17
I0
sg20
I0
sa(dp670
g3
I0
sg4
I0
sg10
I0
sg5
I0
sg7
I0
sg8
I0
sg11
I0
sg9
I0
sg6
I0
sg12
I0
sg13
I0
sg14
I0
sg21
I0
sg2
I0
sg16
I0
sg18
I0
sg19
I0
sg20
I0
sg15
I0
sg22
I0
sg23
I1
sg24
I0
sg17
I0
sg25
I0
sa(dp671
g3
I0
sg4
I0
sg5
I0
sg6
I0
sg7
I1
sg8
I0
sg9
I0
sg10
I0
sg11
I0
sg12
I0
sg13
I0
sg14
I0
sg25
I0
sg15
I0
sg2
I0
sg16
I0
sg18
I0
sg19
I0
sg21
I0
sg22
I0
sg23
I0
sg24
I0
sg17
I0
sg20
I0
sa(dp672
g3
I0
sg4
I1
sg10
I0
sg5
I0
sg7
I0
sg8
I0
sg11
I0
sg9
I0
sg6
I0
sg12
I0
sg13
I0
sg14
I0
sg24
I0
sg21
I0
sg2
I0
sg16
I0
sg18
I0
sg19
I0
sg15
I0
sg22
I0
sg23
I0
sg25
I0
sg17
I0
sg20
I0
sa(dp673
g3
I0
sg4
I0
sg5
I0
sg6
I0
sg7
I0
sg8
I1
sg9
I0
sg10
I0
sg11
I0
sg12
I0
sg13
I0
sg14
I0
sg15
I0
sg2
I0
sg16
I0
sg18
I0
sg19
I0
sg20
I0
sg21
I0
sg22
I0
sg23
I0
sg24
I0
sg17
I0
sg25
I0
sa(dp674
g3
I0
sg4
I0
sg10
I0
sg5
I0
sg7
I0
sg8
I0
sg11
I0
sg9
I0
sg6
I1
sg12
I0
sg13
I0
sg14
I0
sg25
I0
sg21
I0
sg2
I0
sg16
I0
sg18
I0
sg19
I0
sg15
I0
sg22
I0
sg23
I0
sg24
I0
sg17
I0
sg20
I0
sa(dp675
g3
I0
sg4
I0
sg5
I0
sg6
I0
sg7
I1
sg8
I0
sg9
I0
sg10
I0
sg11
I0
sg12
I0
sg13
I0
sg14
I0
sg24
I0
sg15
I0
sg2
I0
sg16
I0
sg18
I0
sg19
I0
sg21
I0
sg22
I0
sg23
I0
sg25
I0
sg17
I0
sg20
I0
sa(dp676
g3
I0
sg4
I0
sg10
I0
sg5
I0
sg7
I0
sg8
I0
sg11
I0
sg9
I1
sg6
I0
sg12
I0
sg13
I0
sg14
I0
sg21
I0
sg2
I0
sg16
I0
sg18
I0
sg19
I0
sg20
I0
sg15
I0
sg22
I0
sg23
I0
sg24
I0
sg17
I0
sg25
I0
sa(dp677
g3
I1
sg4
I0
sg5
I0
sg6
I0
sg7
I0
sg8
I0
sg9
I0
sg10
I0
sg11
I0
sg12
I0
sg13
I0
sg14
I0
sg25
I0
sg15
I0
sg2
I0
sg16
I0
sg18
I0
sg19
I0
sg21
I0
sg22
I0
sg23
I0
sg24
I0
sg17
I0
sg20
I0
sa(dp678
g3
I0
sg4
I0
sg10
I0
sg5
I0
sg7
I0
sg8
I0
sg11
I0
sg9
I0
sg6
I0
sg12
I0
sg13
I0
sg14
I0
sg24
I0
sg21
I0
sg2
I0
sg16
I1
sg18
I0
sg19
I0
sg15
I0
sg22
I0
sg23
I0
sg25
I0
sg17
I0
sg20
I0
sa(dp679
g3
I0
sg4
I0
sg5
I0
sg6
I0
sg7
I0
sg8
I1
sg9
I0
sg10
I0
sg11
I0
sg12
I0
sg13
I0
sg14
I0
sg15
I0
sg2
I0
sg16
I0
sg18
I0
sg19
I0
sg20
I0
sg21
I0
sg22
I0
sg23
I0
sg24
I0
sg17
I0
sg25
I0
sa(dp680
g3
I0
sg4
I0
sg10
I0
sg5
I0
sg7
I0
sg8
I1
sg11
I0
sg9
I0
sg6
I0
sg12
I0
sg13
I0
sg14
I0
sg25
I0
sg21
I0
sg2
I0
sg16
I0
sg18
I0
sg19
I0
sg15
I0
sg22
I0
sg23
I0
sg24
I0
sg17
I0
sg20
I0
sa(dp681
g3
I0
sg4
I0
sg5
I0
sg6
I0
sg7
I0
sg8
I1
sg9
I0
sg10
I0
sg11
I0
sg12
I0
sg13
I0
sg14
I0
sg24
I0
sg15
I0
sg2
I0
sg16
I0
sg18
I0
sg19
I0
sg21
I0
sg22
I0
sg23
I0
sg25
I0
sg17
I0
sg20
I0
sa(dp682
g3
I0
sg4
I0
sg10
I0
sg5
I0
sg7
I0
sg8
I0
sg11
I0
sg9
I0
sg6
I0
sg12
I0
sg13
I0
sg14
I0
sg21
I0
sg2
I0
sg16
I0
sg18
I0
sg19
I0
sg20
I0
sg15
I0
sg22
I0
sg23
I0
sg24
I0
sg17
I0
sg25
I1
sa(dp683
g3
I0
sg4
I0
sg5
I0
sg6
I0
sg7
I0
sg8
I0
sg9
I1
sg10
I0
sg11
I0
sg12
I0
sg13
I0
sg14
I0
sg25
I0
sg15
I0
sg2
I0
sg16
I0
sg18
I0
sg19
I0
sg21
I0
sg22
I0
sg23
I0
sg24
I0
sg17
I0
sg20
I0
sa(dp684
g3
I0
sg4
I0
sg10
I0
sg5
I0
sg7
I0
sg8
I0
sg11
I0
sg9
I0
sg6
I0
sg12
I1
sg13
I0
sg14
I0
sg24
I0
sg21
I0
sg2
I0
sg16
I0
sg18
I0
sg19
I0
sg15
I0
sg22
I0
sg23
I0
sg25
I0
sg17
I0
sg20
I0
sa(dp685
g3
I0
sg4
I0
sg5
I0
sg6
I0
sg7
I1
sg8
I0
sg9
I0
sg10
I0
sg11
I0
sg12
I0
sg13
I0
sg14
I0
sg15
I0
sg2
I0
sg16
I0
sg18
I0
sg19
I0
sg20
I0
sg21
I0
sg22
I0
sg23
I0
sg24
I0
sg17
I0
sg25
I0
sa(dp686
g3
I0
sg4
I0
sg10
I0
sg5
I0
sg7
I0
sg8
I0
sg11
I0
sg9
I0
sg6
I1
sg12
I0
sg13
I0
sg14
I0
sg25
I0
sg21
I0
sg2
I0
sg16
I0
sg18
I0
sg19
I0
sg15
I0
sg22
I0
sg23
I0
sg24
I0
sg17
I0
sg20
I0
sa(dp687
g3
I0
sg4
I0
sg5
I0
sg6
I0
sg7
I0
sg8
I0
sg9
I0
sg10
I0
sg11
I0
sg12
I0
sg13
I0
sg14
I1
sg24
I0
sg15
I0
sg2
I0
sg16
I0
sg18
I0
sg19
I0
sg21
I0
sg22
I0
sg23
I0
sg25
I0
sg17
I0
sg20
I0
sa(dp688
g3
I0
sg4
I0
sg10
I0
sg5
I0
sg7
I0
sg8
I0
sg11
I0
sg9
I0
sg6
I0
sg12
I1
sg13
I0
sg14
I0
sg21
I0
sg2
I0
sg16
I0
sg18
I0
sg19
I0
sg20
I0
sg15
I0
sg22
I0
sg23
I0
sg24
I0
sg17
I0
sg25
I0
sa(dp689
g3
I0
sg4
I0
sg5
I0
sg6
I0
sg7
I0
sg8
I0
sg9
I0
sg10
I0
sg11
I0
sg12
I0
sg13
I0
sg14
I0
sg25
I0
sg15
I0
sg2
I0
sg16
I0
sg18
I0
sg19
I1
sg21
I0
sg22
I0
sg23
I0
sg24
I0
sg17
I0
sg20
I0
sa(dp690
g3
I0
sg4
I0
sg10
I0
sg5
I0
sg7
I0
sg8
I1
sg11
I0
sg9
I0
sg6
I0
sg12
I0
sg13
I0
sg14
I0
sg24
I0
sg21
I0
sg2
I0
sg16
I0
sg18
I0
sg19
I0
sg15
I0
sg22
I0
sg23
I0
sg25
I0
sg17
I0
sg20
I0
sa(dp691
g3
I0
sg4
I0
sg5
I0
sg6
I0
sg7
I0
sg8
I0
sg9
I0
sg10
I0
sg11
I0
sg12
I0
sg13
I0
sg14
I0
sg15
I0
sg2
I1
sg16
I0
sg18
I0
sg19
I0
sg20
I0
sg21
I0
sg22
I0
sg23
I0
sg24
I0
sg17
I0
sg25
I0
sa(dp692
g3
I0
sg4
I0
sg10
I0
sg5
I0
sg7
I0
sg8
I0
sg11
I0
sg9
I0
sg6
I0
sg12
I0
sg13
I0
sg14
I0
sg25
I0
sg21
I0
sg2
I0
sg16
I0
sg18
I1
sg19
I0
sg15
I0
sg22
I0
sg23
I0
sg24
I0
sg17
I0
sg20
I0
sa(dp693
g3
I0
sg4
I0
sg5
I0
sg6
I0
sg7
I0
sg8
I0
sg9
I0
sg10
I0
sg11
I0
sg12
I0
sg13
I0
sg14
I0
sg24
I0
sg15
I0
sg2
I0
sg16
I0
sg18
I0
sg19
I1
sg21
I0
sg22
I0
sg23
I0
sg25
I0
sg17
I0
sg20
I0
sa(dp694
g3
I0
sg4
I0
sg10
I0
sg5
I0
sg7
I0
sg8
I1
sg11
I0
sg9
I0
sg6
I0
sg12
I0
sg13
I0
sg14
I0
sg21
I0
sg2
I0
sg16
I0
sg18
I0
sg19
I0
sg20
I0
sg15
I0
sg22
I0
sg23
I0
sg24
I0
sg17
I0
sg25
I0
sa(dp695
g3
I0
sg4
I0
sg5
I0
sg6
I0
sg7
I0
sg8
I1
sg9
I0
sg10
I0
sg11
I0
sg12
I0
sg13
I0
sg14
I0
sg25
I0
sg15
I0
sg2
I0
sg16
I0
sg18
I0
sg19
I0
sg21
I0
sg22
I0
sg23
I0
sg24
I0
sg17
I0
sg20
I0
sa(dp696
g3
I0
sg4
I0
sg10
I0
sg5
I0
sg7
I0
sg8
I1
sg11
I0
sg9
I0
sg6
I0
sg12
I0
sg13
I0
sg14
I0
sg24
I0
sg21
I0
sg2
I0
sg16
I0
sg18
I0
sg19
I0
sg15
I0
sg22
I0
sg23
I0
sg25
I0
sg17
I0
sg20
I0
sa(dp697
g3
I0
sg4
I0
sg5
I0
sg6
I0
sg7
I0
sg8
I0
sg9
I0
sg10
I0
sg11
I0
sg12
I1
sg13
I0
sg14
I0
sg15
I0
sg2
I0
sg16
I0
sg18
I0
sg19
I0
sg20
I0
sg21
I0
sg22
I0
sg23
I0
sg24
I0
sg17
I0
sg25
I0
sa(dp698
g3
I0
sg4
I0
sg10
I0
sg5
I0
sg7
I0
sg8
I1
sg11
I0
sg9
I0
sg6
I0
sg12
I0
sg13
I0
sg14
I0
sg25
I0
sg21
I0
sg2
I0
sg16
I0
sg18
I0
sg19
I0
sg15
I0
sg22
I0
sg23
I0
sg24
I0
sg17
I0
sg20
I0
sa(dp699
g3
I0
sg4
I0
sg5
I0
sg6
I0
sg7
I0
sg8
I0
sg9
I1
sg10
I0
sg11
I0
sg12
I0
sg13
I0
sg14
I0
sg24
I0
sg15
I0
sg2
I0
sg16
I0
sg18
I0
sg19
I0
sg21
I0
sg22
I0
sg23
I0
sg25
I0
sg17
I0
sg20
I0
sa(dp700
g3
I0
sg4
I0
sg10
I0
sg5
I0
sg7
I0
sg8
I0
sg11
I0
sg9
I0
sg6
I0
sg12
I0
sg13
I0
sg14
I0
sg21
I0
sg2
I1
sg16
I0
sg18
I0
sg19
I0
sg20
I0
sg15
I0
sg22
I0
sg23
I0
sg24
I0
sg17
I0
sg25
I0
sa(dp701
g3
I0
sg4
I0
sg5
I1
sg6
I0
sg7
I0
sg8
I0
sg9
I0
sg10
I0
sg11
I0
sg12
I0
sg13
I0
sg14
I0
sg25
I0
sg15
I0
sg2
I0
sg16
I0
sg18
I0
sg19
I0
sg21
I0
sg22
I0
sg23
I0
sg24
I0
sg17
I0
sg20
I0
sa(dp702
g3
I0
sg4
I0
sg10
I0
sg5
I0
sg7
I0
sg8
I0
sg11
I0
sg9
I0
sg6
I0
sg12
I0
sg13
I0
sg14
I0
sg24
I0
sg21
I0
sg2
I0
sg16
I0
sg18
I0
sg19
I0
sg15
I0
sg22
I0
sg23
I1
sg25
I0
sg17
I0
sg20
I0
sa(dp703
g3
I0
sg4
I0
sg5
I0
sg6
I0
sg7
I0
sg8
I0
sg9
I0
sg10
I0
sg11
I0
sg12
I0
sg13
I0
sg14
I0
sg15
I0
sg2
I0
sg16
I0
sg18
I1
sg19
I0
sg20
I0
sg21
I0
sg22
I0
sg23
I0
sg24
I0
sg17
I0
sg25
I0
sa(dp704
g3
I0
sg4
I0
sg10
I0
sg5
I0
sg7
I0
sg8
I1
sg11
I0
sg9
I0
sg6
I0
sg12
I0
sg13
I0
sg14
I0
sg25
I0
sg21
I0
sg2
I0
sg16
I0
sg18
I0
sg19
I0
sg15
I0
sg22
I0
sg23
I0
sg24
I0
sg17
I0
sg20
I0
sa(dp705
g3
I0
sg4
I0
sg5
I0
sg6
I0
sg7
I0
sg8
I0
sg9
I1
sg10
I0
sg11
I0
sg12
I0
sg13
I0
sg14
I0
sg24
I0
sg15
I0
sg2
I0
sg16
I0
sg18
I0
sg19
I0
sg21
I0
sg22
I0
sg23
I0
sg25
I0
sg17
I0
sg20
I0
sa(dp706
g3
I0
sg4
I0
sg10
I0
sg5
I0
sg7
I0
sg8
I0
sg11
I1
sg9
I0
sg6
I0
sg12
I0
sg13
I0
sg14
I0
sg21
I0
sg2
I0
sg16
I0
sg18
I0
sg19
I0
sg20
I0
sg15
I0
sg22
I0
sg23
I0
sg24
I0
sg17
I0
sg25
I0
sa(dp707
g3
I0
sg4
I0
sg5
I0
sg6
I0
sg7
I1
sg8
I0
sg9
I0
sg10
I0
sg11
I0
sg12
I0
sg13
I0
sg14
I0
sg25
I0
sg15
I0
sg2
I0
sg16
I0
sg18
I0
sg19
I0
sg21
I0
sg22
I0
sg23
I0
sg24
I0
sg17
I0
sg20
I0
sa(dp708
g3
I0
sg4
I0
sg10
I0
sg5
I0
sg7
I0
sg8
I1
sg11
I0
sg9
I0
sg6
I0
sg12
I0
sg13
I0
sg14
I0
sg24
I0
sg21
I0
sg2
I0
sg16
I0
sg18
I0
sg19
I0
sg15
I0
sg22
I0
sg23
I0
sg25
I0
sg17
I0
sg20
I0
sa(dp709
g3
I0
sg4
I0
sg5
I0
sg6
I1
sg7
I0
sg8
I0
sg9
I0
sg10
I0
sg11
I0
sg12
I0
sg13
I0
sg14
I0
sg15
I0
sg2
I0
sg16
I0
sg18
I0
sg19
I0
sg20
I0
sg21
I0
sg22
I0
sg23
I0
sg24
I0
sg17
I0
sg25
I0
sa(dp710
g3
I0
sg4
I0
sg10
I0
sg5
I0
sg7
I0
sg8
I1
sg11
I0
sg9
I0
sg6
I0
sg12
I0
sg13
I0
sg14
I0
sg25
I0
sg21
I0
sg2
I0
sg16
I0
sg18
I0
sg19
I0
sg15
I0
sg22
I0
sg23
I0
sg24
I0
sg17
I0
sg20
I0
sa(dp711
g3
I0
sg4
I0
sg5
I0
sg6
I0
sg7
I0
sg8
I1
sg9
I0
sg10
I0
sg11
I0
sg12
I0
sg13
I0
sg14
I0
sg24
I0
sg15
I0
sg2
I0
sg16
I0
sg18
I0
sg19
I0
sg21
I0
sg22
I0
sg23
I0
sg25
I0
sg17
I0
sg20
I0
sa(dp712
g3
I0
sg4
I0
sg10
I0
sg5
I0
sg7
I1
sg8
I0
sg11
I0
sg9
I0
sg6
I0
sg12
I0
sg13
I0
sg14
I0
sg21
I0
sg2
I0
sg16
I0
sg18
I0
sg19
I0
sg20
I0
sg15
I0
sg22
I0
sg23
I0
sg24
I0
sg17
I0
sg25
I0
sa(dp713
g3
I0
sg4
I0
sg5
I0
sg6
I0
sg7
I0
sg8
I1
sg9
I0
sg10
I0
sg11
I0
sg12
I0
sg13
I0
sg14
I0
sg25
I0
sg15
I0
sg2
I0
sg16
I0
sg18
I0
sg19
I0
sg21
I0
sg22
I0
sg23
I0
sg24
I0
sg17
I0
sg20
I0
sa(dp714
g3
I0
sg4
I0
sg10
I0
sg5
I0
sg7
I0
sg8
I0
sg11
I0
sg9
I0
sg6
I0
sg12
I0
sg13
I0
sg14
I0
sg24
I0
sg21
I0
sg2
I0
sg16
I0
sg18
I0
sg19
I0
sg15
I0
sg22
I1
sg23
I0
sg25
I0
sg17
I0
sg20
I0
sa(dp715
g3
I0
sg4
I0
sg5
I0
sg6
I0
sg7
I0
sg8
I1
sg9
I0
sg10
I0
sg11
I0
sg12
I0
sg13
I0
sg14
I0
sg15
I0
sg2
I0
sg16
I0
sg18
I0
sg19
I0
sg20
I0
sg21
I0
sg22
I0
sg23
I0
sg24
I0
sg17
I0
sg25
I0
sa(dp716
g3
I0
sg4
I0
sg10
I0
sg5
I0
sg7
I0
sg8
I0
sg11
I0
sg9
I0
sg6
I0
sg12
I0
sg13
I0
sg14
I0
sg25
I0
sg21
I0
sg2
I0
sg16
I0
sg18
I0
sg19
I0
sg15
I0
sg22
I0
sg23
I1
sg24
I0
sg17
I0
sg20
I0
sa(dp717
g3
I0
sg4
I0
sg5
I0
sg6
I0
sg7
I0
sg8
I0
sg9
I0
sg10
I0
sg11
I0
sg12
I0
sg13
I0
sg14
I0
sg24
I0
sg15
I0
sg2
I1
sg16
I0
sg18
I0
sg19
I0
sg21
I0
sg22
I0
sg23
I0
sg25
I0
sg17
I0
sg20
I0
sa(dp718
g3
I0
sg4
I0
sg10
I0
sg5
I0
sg7
I0
sg8
I0
sg11
I0
sg9
I0
sg6
I0
sg12
I0
sg13
I0
sg14
I0
sg21
I0
sg2
I0
sg16
I0
sg18
I0
sg19
I0
sg20
I0
sg15
I0
sg22
I0
sg23
I0
sg24
I1
sg17
I0
sg25
I0
sa(dp719
g3
I0
sg4
I0
sg5
I0
sg6
I1
sg7
I0
sg8
I0
sg9
I0
sg10
I0
sg11
I0
sg12
I0
sg13
I0
sg14
I0
sg25
I0
sg15
I0
sg2
I0
sg16
I0
sg18
I0
sg19
I0
sg21
I0
sg22
I0
sg23
I0
sg24
I0
sg17
I0
sg20
I0
sa(dp720
g3
I0
sg4
I0
sg10
I0
sg5
I0
sg7
I0
sg8
I0
sg11
I0
sg9
I0
sg6
I0
sg12
I1
sg13
I0
sg14
I0
sg24
I0
sg21
I0
sg2
I0
sg16
I0
sg18
I0
sg19
I0
sg15
I0
sg22
I0
sg23
I0
sg25
I0
sg17
I0
sg20
I0
sa(dp721
g3
I0
sg4
I0
sg5
I0
sg6
I0
sg7
I0
sg8
I0
sg9
I0
sg10
I0
sg11
I0
sg12
I0
sg13
I0
sg14
I0
sg15
I1
sg2
I0
sg16
I0
sg18
I0
sg19
I0
sg20
I0
sg21
I0
sg22
I0
sg23
I0
sg24
I0
sg17
I0
sg25
I0
sa(dp722
g3
I0
sg4
I0
sg10
I0
sg5
I0
sg7
I0
sg8
I0
sg11
I0
sg9
I0
sg6
I0
sg12
I0
sg13
I0
sg14
I0
sg25
I0
sg21
I0
sg2
I0
sg16
I0
sg18
I0
sg19
I0
sg15
I0
sg22
I0
sg23
I0
sg24
I0
sg17
I1
sg20
I0
sa(dp723
g3
I0
sg4
I0
sg5
I0
sg6
I0
sg7
I1
sg8
I0
sg9
I0
sg10
I0
sg11
I0
sg12
I0
sg13
I0
sg14
I0
sg24
I0
sg15
I0
sg2
I0
sg16
I0
sg18
I0
sg19
I0
sg21
I0
sg22
I0
sg23
I0
sg25
I0
sg17
I0
sg20
I0
sa(dp724
g3
I0
sg4
I0
sg10
I0
sg5
I0
sg7
I0
sg8
I1
sg11
I0
sg9
I0
sg6
I0
sg12
I0
sg13
I0
sg14
I0
sg21
I0
sg2
I0
sg16
I0
sg18
I0
sg19
I0
sg20
I0
sg15
I0
sg22
I0
sg23
I0
sg24
I0
sg17
I0
sg25
I0
sa(dp725
g3
I0
sg4
I0
sg5
I0
sg6
I0
sg7
I0
sg8
I1
sg9
I0
sg10
I0
sg11
I0
sg12
I0
sg13
I0
sg14
I0
sg25
I0
sg15
I0
sg2
I0
sg16
I0
sg18
I0
sg19
I0
sg21
I0
sg22
I0
sg23
I0
sg24
I0
sg17
I0
sg20
I0
sa(dp726
g3
I0
sg4
I0
sg10
I0
sg5
I0
sg7
I0
sg8
I0
sg11
I1
sg9
I0
sg6
I0
sg12
I0
sg13
I0
sg14
I0
sg24
I0
sg21
I0
sg2
I0
sg16
I0
sg18
I0
sg19
I0
sg15
I0
sg22
I0
sg23
I0
sg25
I0
sg17
I0
sg20
I0
sa(dp727
g3
I0
sg4
I0
sg5
I0
sg6
I0
sg7
I0
sg8
I0
sg9
I0
sg10
I0
sg11
I0
sg12
I0
sg13
I0
sg14
I0
sg15
I1
sg2
I0
sg16
I0
sg18
I0
sg19
I0
sg20
I0
sg21
I0
sg22
I0
sg23
I0
sg24
I0
sg17
I0
sg25
I0
sa(dp728
g3
I0
sg4
I0
sg10
I0
sg5
I0
sg7
I0
sg8
I0
sg11
I0
sg9
I0
sg6
I0
sg12
I0
sg13
I0
sg14
I0
sg25
I0
sg21
I0
sg2
I0
sg16
I1
sg18
I0
sg19
I0
sg15
I0
sg22
I0
sg23
I0
sg24
I0
sg17
I0
sg20
I0
sa(dp729
g3
I0
sg4
I0
sg5
I0
sg6
I0
sg7
I0
sg8
I1
sg9
I0
sg10
I0
sg11
I0
sg12
I0
sg13
I0
sg14
I0
sg24
I0
sg15
I0
sg2
I0
sg16
I0
sg18
I0
sg19
I0
sg21
I0
sg22
I0
sg23
I0
sg25
I0
sg17
I0
sg20
I0
sa(dp730
g3
I0
sg4
I0
sg10
I0
sg5
I0
sg7
I0
sg8
I1
sg11
I0
sg9
I0
sg6
I0
sg12
I0
sg13
I0
sg14
I0
sg21
I0
sg2
I0
sg16
I0
sg18
I0
sg19
I0
sg20
I0
sg15
I0
sg22
I0
sg23
I0
sg24
I0
sg17
I0
sg25
I0
sa(dp731
g3
I0
sg4
I0
sg5
I0
sg6
I0
sg7
I0
sg8
I0
sg9
I0
sg10
I0
sg11
I0
sg12
I0
sg13
I0
sg14
I0
sg25
I0
sg15
I1
sg2
I0
sg16
I0
sg18
I0
sg19
I0
sg21
I0
sg22
I0
sg23
I0
sg24
I0
sg17
I0
sg20
I0
sa(dp732
g3
I0
sg4
I0
sg10
I0
sg5
I0
sg7
I0
sg8
I0
sg11
I0
sg9
I0
sg6
I0
sg12
I0
sg13
I0
sg14
I0
sg24
I0
sg21
I1
sg2
I0
sg16
I0
sg18
I0
sg19
I0
sg15
I0
sg22
I0
sg23
I0
sg25
I0
sg17
I0
sg20
I0
sa(dp733
g3
I0
sg4
I1
sg5
I0
sg6
I0
sg7
I0
sg8
I0
sg9
I0
sg10
I0
sg11
I0
sg12
I0
sg13
I0
sg14
I0
sg15
I0
sg2
I0
sg16
I0
sg18
I0
sg19
I0
sg20
I0
sg21
I0
sg22
I0
sg23
I0
sg24
I0
sg17
I0
sg25
I0
sa(dp734
g3
I0
sg4
I0
sg10
I0
sg5
I0
sg7
I1
sg8
I0
sg11
I0
sg9
I0
sg6
I0
sg12
I0
sg13
I0
sg14
I0
sg25
I0
sg21
I0
sg2
I0
sg16
I0
sg18
I0
sg19
I0
sg15
I0
sg22
I0
sg23
I0
sg24
I0
sg17
I0
sg20
I0
sa(dp735
g3
I0
sg4
I0
sg5
I0
sg6
I0
sg7
I0
sg8
I1
sg9
I0
sg10
I0
sg11
I0
sg12
I0
sg13
I0
sg14
I0
sg24
I0
sg15
I0
sg2
I0
sg16
I0
sg18
I0
sg19
I0
sg21
I0
sg22
I0
sg23
I0
sg25
I0
sg17
I0
sg20
I0
sa(dp736
g3
I0
sg4
I0
sg10
I1
sg5
I0
sg7
I0
sg8
I0
sg11
I0
sg9
I0
sg6
I0
sg12
I0
sg13
I0
sg14
I0
sg21
I0
sg2
I0
sg16
I0
sg18
I0
sg19
I0
sg20
I0
sg15
I0
sg22
I0
sg23
I0
sg24
I0
sg17
I0
sg25
I0
sa(dp737
g3
I0
sg4
I0
sg5
I0
sg6
I1
sg7
I0
sg8
I0
sg9
I0
sg10
I0
sg11
I0
sg12
I0
sg13
I0
sg14
I0
sg25
I0
sg15
I0
sg2
I0
sg16
I0
sg18
I0
sg19
I0
sg21
I0
sg22
I0
sg23
I0
sg24
I0
sg17
I0
sg20
I0
sa(dp738
g3
I0
sg4
I0
sg10
I0
sg5
I0
sg7
I0
sg8
I0
sg11
I0
sg9
I0
sg6
I0
sg12
I0
sg13
I0
sg14
I0
sg24
I0
sg21
I0
sg2
I0
sg16
I0
sg18
I0
sg19
I0
sg15
I0
sg22
I0
sg23
I1
sg25
I0
sg17
I0
sg20
I0
sa(dp739
g3
I0
sg4
I0
sg5
I0
sg6
I0
sg7
I0
sg8
I0
sg9
I0
sg10
I0
sg11
I0
sg12
I1
sg13
I0
sg14
I0
sg15
I0
sg2
I0
sg16
I0
sg18
I0
sg19
I0
sg20
I0
sg21
I0
sg22
I0
sg23
I0
sg24
I0
sg17
I0
sg25
I0
sa(dp740
g3
I0
sg4
I0
sg10
I0
sg5
I0
sg7
I0
sg8
I0
sg11
I0
sg9
I0
sg6
I0
sg12
I0
sg13
I0
sg14
I0
sg25
I0
sg21
I0
sg2
I0
sg16
I0
sg18
I0
sg19
I0
sg15
I1
sg22
I0
sg23
I0
sg24
I0
sg17
I0
sg20
I0
sa(dp741
g3
I0
sg4
I0
sg5
I0
sg6
I0
sg7
I1
sg8
I0
sg9
I0
sg10
I0
sg11
I0
sg12
I0
sg13
I0
sg14
I0
sg24
I0
sg15
I0
sg2
I0
sg16
I0
sg18
I0
sg19
I0
sg21
I0
sg22
I0
sg23
I0
sg25
I0
sg17
I0
sg20
I0
sa(dp742
g3
I0
sg4
I0
sg10
I0
sg5
I0
sg7
I0
sg8
I1
sg11
I0
sg9
I0
sg6
I0
sg12
I0
sg13
I0
sg14
I0
sg21
I0
sg2
I0
sg16
I0
sg18
I0
sg19
I0
sg20
I0
sg15
I0
sg22
I0
sg23
I0
sg24
I0
sg17
I0
sg25
I0
sa(dp743
g3
I0
sg4
I0
sg5
I0
sg6
I0
sg7
I0
sg8
I0
sg9
I0
sg10
I0
sg11
I0
sg12
I1
sg13
I0
sg14
I0
sg25
I0
sg15
I0
sg2
I0
sg16
I0
sg18
I0
sg19
I0
sg21
I0
sg22
I0
sg23
I0
sg24
I0
sg17
I0
sg20
I0
sa(dp744
g3
I0
sg4
I0
sg10
I0
sg5
I0
sg7
I0
sg8
I0
sg11
I0
sg9
I0
sg6
I0
sg12
I1
sg13
I0
sg14
I0
sg24
I0
sg21
I0
sg2
I0
sg16
I0
sg18
I0
sg19
I0
sg15
I0
sg22
I0
sg23
I0
sg25
I0
sg17
I0
sg20
I0
sa(dp745
g3
I0
sg4
I0
sg5
I0
sg6
I0
sg7
I0
sg8
I0
sg9
I0
sg10
I0
sg11
I1
sg12
I0
sg13
I0
sg14
I0
sg15
I0
sg2
I0
sg16
I0
sg18
I0
sg19
I0
sg20
I0
sg21
I0
sg22
I0
sg23
I0
sg24
I0
sg17
I0
sg25
I0
sa(dp746
g3
I0
sg4
I0
sg10
I0
sg5
I0
sg7
I0
sg8
I0
sg11
I0
sg9
I0
sg6
I0
sg12
I1
sg13
I0
sg14
I0
sg25
I0
sg21
I0
sg2
I0
sg16
I0
sg18
I0
sg19
I0
sg15
I0
sg22
I0
sg23
I0
sg24
I0
sg17
I0
sg20
I0
sa(dp747
g3
I0
sg4
I0
sg5
I0
sg6
I0
sg7
I0
sg8
I1
sg9
I0
sg10
I0
sg11
I0
sg12
I0
sg13
I0
sg14
I0
sg24
I0
sg15
I0
sg2
I0
sg16
I0
sg18
I0
sg19
I0
sg21
I0
sg22
I0
sg23
I0
sg25
I0
sg17
I0
sg20
I0
sa(dp748
g3
I0
sg4
I0
sg10
I1
sg5
I0
sg7
I0
sg8
I0
sg11
I0
sg9
I0
sg6
I0
sg12
I0
sg13
I0
sg14
I0
sg21
I0
sg2
I0
sg16
I0
sg18
I0
sg19
I0
sg20
I0
sg15
I0
sg22
I0
sg23
I0
sg24
I0
sg17
I0
sg25
I0
sa(dp749
g3
I0
sg4
I0
sg5
I0
sg6
I0
sg7
I0
sg8
I0
sg9
I0
sg10
I0
sg11
I0
sg12
I0
sg13
I0
sg14
I0
sg25
I0
sg15
I1
sg2
I0
sg16
I0
sg18
I0
sg19
I0
sg21
I0
sg22
I0
sg23
I0
sg24
I0
sg17
I0
sg20
I0
sa(dp750
g3
I0
sg4
I0
sg10
I0
sg5
I0
sg7
I0
sg8
I0
sg11
I0
sg9
I0
sg6
I0
sg12
I0
sg13
I0
sg14
I0
sg24
I0
sg21
I0
sg2
I1
sg16
I0
sg18
I0
sg19
I0
sg15
I0
sg22
I0
sg23
I0
sg25
I0
sg17
I0
sg20
I0
sa(dp751
g3
I0
sg4
I0
sg5
I0
sg6
I0
sg7
I1
sg8
I0
sg9
I0
sg10
I0
sg11
I0
sg12
I0
sg13
I0
sg14
I0
sg15
I0
sg2
I0
sg16
I0
sg18
I0
sg19
I0
sg20
I0
sg21
I0
sg22
I0
sg23
I0
sg24
I0
sg17
I0
sg25
I0
sa(dp752
g3
I0
sg4
I0
sg10
I0
sg5
I0
sg7
I1
sg8
I0
sg11
I0
sg9
I0
sg6
I0
sg12
I0
sg13
I0
sg14
I0
sg25
I0
sg21
I0
sg2
I0
sg16
I0
sg18
I0
sg19
I0
sg15
I0
sg22
I0
sg23
I0
sg24
I0
sg17
I0
sg20
I0
sa(dp753
g3
I0
sg4
I0
sg5
I0
sg6
I0
sg7
I0
sg8
I0
sg9
I0
sg10
I0
sg11
I0
sg12
I0
sg13
I0
sg14
I0
sg24
I0
sg15
I0
sg2
I0
sg16
I1
sg18
I0
sg19
I0
sg21
I0
sg22
I0
sg23
I0
sg25
I0
sg17
I0
sg20
I0
sa(dp754
g3
I0
sg4
I0
sg10
I0
sg5
I0
sg7
I0
sg8
I0
sg11
I0
sg9
I1
sg6
I0
sg12
I0
sg13
I0
sg14
I0
sg21
I0
sg2
I0
sg16
I0
sg18
I0
sg19
I0
sg20
I0
sg15
I0
sg22
I0
sg23
I0
sg24
I0
sg17
I0
sg25
I0
sa(dp755
g3
I0
sg4
I0
sg5
I0
sg6
I0
sg7
I0
sg8
I1
sg9
I0
sg10
I0
sg11
I0
sg12
I0
sg13
I0
sg14
I0
sg25
I0
sg15
I0
sg2
I0
sg16
I0
sg18
I0
sg19
I0
sg21
I0
sg22
I0
sg23
I0
sg24
I0
sg17
I0
sg20
I0
sa(dp756
g3
I0
sg4
I0
sg10
I0
sg5
I0
sg7
I0
sg8
I0
sg11
I0
sg9
I0
sg6
I0
sg12
I0
sg13
I0
sg14
I0
sg24
I0
sg21
I0
sg2
I0
sg16
I0
sg18
I0
sg19
I0
sg15
I1
sg22
I0
sg23
I0
sg25
I0
sg17
I0
sg20
I0
sa(dp757
g3
I0
sg4
I0
sg5
I0
sg6
I0
sg7
I0
sg8
I0
sg9
I0
sg10
I0
sg11
I0
sg12
I0
sg13
I1
sg14
I0
sg15
I0
sg2
I0
sg16
I0
sg18
I0
sg19
I0
sg20
I0
sg21
I0
sg22
I0
sg23
I0
sg24
I0
sg17
I0
sg25
I0
sa(dp758
g3
I0
sg4
I0
sg10
I0
sg5
I0
sg7
I0
sg8
I1
sg11
I0
sg9
I0
sg6
I0
sg12
I0
sg13
I0
sg14
I0
sg25
I0
sg21
I0
sg2
I0
sg16
I0
sg18
I0
sg19
I0
sg15
I0
sg22
I0
sg23
I0
sg24
I0
sg17
I0
sg20
I0
sa(dp759
g3
I0
sg4
I0
sg5
I0
sg6
I0
sg7
I0
sg8
I0
sg9
I1
sg10
I0
sg11
I0
sg12
I0
sg13
I0
sg14
I0
sg24
I0
sg15
I0
sg2
I0
sg16
I0
sg18
I0
sg19
I0
sg21
I0
sg22
I0
sg23
I0
sg25
I0
sg17
I0
sg20
I0
sa(dp760
g3
I0
sg4
I0
sg10
I0
sg5
I0
sg7
I0
sg8
I0
sg11
I0
sg9
I1
sg6
I0
sg12
I0
sg13
I0
sg14
I0
sg21
I0
sg2
I0
sg16
I0
sg18
I0
sg19
I0
sg20
I0
sg15
I0
sg22
I0
sg23
I0
sg24
I0
sg17
I0
sg25
I0
sa(dp761
g3
I0
sg4
I0
sg5
I0
sg6
I0
sg7
I0
sg8
I0
sg9
I0
sg10
I0
sg11
I0
sg12
I0
sg13
I0
sg14
I0
sg25
I0
sg15
I1
sg2
I0
sg16
I0
sg18
I0
sg19
I0
sg21
I0
sg22
I0
sg23
I0
sg24
I0
sg17
I0
sg20
I0
sa(dp762
g3
I0
sg4
I0
sg10
I0
sg5
I0
sg7
I0
sg8
I0
sg11
I0
sg9
I0
sg6
I0
sg12
I0
sg13
I0
sg14
I0
sg24
I0
sg21
I0
sg2
I0
sg16
I1
sg18
I0
sg19
I0
sg15
I0
sg22
I0
sg23
I0
sg25
I0
sg17
I0
sg20
I0
sa(dp763
g3
I0
sg4
I0
sg5
I0
sg6
I0
sg7
I0
sg8
I0
sg9
I0
sg10
I0
sg11
I1
sg12
I0
sg13
I0
sg14
I0
sg15
I0
sg2
I0
sg16
I0
sg18
I0
sg19
I0
sg20
I0
sg21
I0
sg22
I0
sg23
I0
sg24
I0
sg17
I0
sg25
I0
sa(dp764
g3
I0
sg4
I0
sg10
I0
sg5
I0
sg7
I1
sg8
I0
sg11
I0
sg9
I0
sg6
I0
sg12
I0
sg13
I0
sg14
I0
sg25
I0
sg21
I0
sg2
I0
sg16
I0
sg18
I0
sg19
I0
sg15
I0
sg22
I0
sg23
I0
sg24
I0
sg17
I0
sg20
I0
sa(dp765
g3
I0
sg4
I0
sg5
I0
sg6
I0
sg7
I0
sg8
I0
sg9
I0
sg10
I0
sg11
I0
sg12
I0
sg13
I0
sg14
I1
sg24
I0
sg15
I0
sg2
I0
sg16
I0
sg18
I0
sg19
I0
sg21
I0
sg22
I0
sg23
I0
sg25
I0
sg17
I0
sg20
I0
sa(dp766
g3
I0
sg4
I0
sg10
I0
sg5
I0
sg7
I0
sg8
I0
sg11
I0
sg9
I0
sg6
I0
sg12
I0
sg13
I0
sg14
I0
sg21
I0
sg2
I0
sg16
I1
sg18
I0
sg19
I0
sg20
I0
sg15
I0
sg22
I0
sg23
I0
sg24
I0
sg17
I0
sg25
I0
sa(dp767
g3
I0
sg4
I0
sg5
I0
sg6
I0
sg7
I0
sg8
I0
sg9
I0
sg10
I0
sg11
I0
sg12
I0
sg13
I0
sg14
I0
sg25
I0
sg15
I0
sg2
I0
sg16
I0
sg18
I0
sg19
I1
sg21
I0
sg22
I0
sg23
I0
sg24
I0
sg17
I0
sg20
I0
sa(dp768
g3
I0
sg4
I0
sg10
I0
sg5
I0
sg7
I0
sg8
I0
sg11
I0
sg9
I0
sg6
I0
sg12
I0
sg13
I0
sg14
I0
sg24
I0
sg21
I0
sg2
I1
sg16
I0
sg18
I0
sg19
I0
sg15
I0
sg22
I0
sg23
I0
sg25
I0
sg17
I0
sg20
I0
sa(dp769
g3
I0
sg4
I0
sg5
I0
sg6
I0
sg7
I0
sg8
I0
sg9
I1
sg10
I0
sg11
I0
sg12
I0
sg13
I0
sg14
I0
sg15
I0
sg2
I0
sg16
I0
sg18
I0
sg19
I0
sg20
I0
sg21
I0
sg22
I0
sg23
I0
sg24
I0
sg17
I0
sg25
I0
sa(dp770
g3
I0
sg4
I1
sg10
I0
sg5
I0
sg7
I0
sg8
I0
sg11
I0
sg9
I0
sg6
I0
sg12
I0
sg13
I0
sg14
I0
sg25
I0
sg21
I0
sg2
I0
sg16
I0
sg18
I0
sg19
I0
sg15
I0
sg22
I0
sg23
I0
sg24
I0
sg17
I0
sg20
I0
sa(dp771
g3
I0
sg4
I0
sg5
I0
sg6
I0
sg7
I0
sg8
I1
sg9
I0
sg10
I0
sg11
I0
sg12
I0
sg13
I0
sg14
I0
sg24
I0
sg15
I0
sg2
I0
sg16
I0
sg18
I0
sg19
I0
sg21
I0
sg22
I0
sg23
I0
sg25
I0
sg17
I0
sg20
I0
sa(dp772
g3
I0
sg4
I0
sg10
I0
sg5
I0
sg7
I0
sg8
I0
sg11
I0
sg9
I0
sg6
I0
sg12
I0
sg13
I0
sg14
I0
sg21
I0
sg2
I0
sg16
I0
sg18
I0
sg19
I1
sg20
I0
sg15
I0
sg22
I0
sg23
I0
sg24
I0
sg17
I0
sg25
I0
sa(dp773
g3
I0
sg4
I0
sg5
I0
sg6
I0
sg7
I1
sg8
I0
sg9
I0
sg10
I0
sg11
I0
sg12
I0
sg13
I0
sg14
I0
sg25
I0
sg15
I0
sg2
I0
sg16
I0
sg18
I0
sg19
I0
sg21
I0
sg22
I0
sg23
I0
sg24
I0
sg17
I0
sg20
I0
sa(dp774
g3
I0
sg4
I0
sg10
I0
sg5
I0
sg7
I0
sg8
I0
sg11
I0
sg9
I0
sg6
I0
sg12
I0
sg13
I0
sg14
I0
sg24
I0
sg21
I1
sg2
I0
sg16
I0
sg18
I0
sg19
I0
sg15
I0
sg22
I0
sg23
I0
sg25
I0
sg17
I0
sg20
I0
sa(dp775
g3
I0
sg4
I0
sg5
I0
sg6
I0
sg7
I0
sg8
I1
sg9
I0
sg10
I0
sg11
I0
sg12
I0
sg13
I0
sg14
I0
sg15
I0
sg2
I0
sg16
I0
sg18
I0
sg19
I0
sg20
I0
sg21
I0
sg22
I0
sg23
I0
sg24
I0
sg17
I0
sg25
I0
sa(dp776
g3
I0
sg4
I0
sg10
I0
sg5
I0
sg7
I0
sg8
I0
sg11
I0
sg9
I0
sg6
I0
sg12
I0
sg13
I0
sg14
I0
sg25
I0
sg21
I0
sg2
I0
sg16
I0
sg18
I0
sg19
I0
sg15
I0
sg22
I0
sg23
I0
sg24
I1
sg17
I0
sg20
I0
sa(dp777
g3
I0
sg4
I0
sg5
I0
sg6
I0
sg7
I0
sg8
I0
sg9
I1
sg10
I0
sg11
I0
sg12
I0
sg13
I0
sg14
I0
sg24
I0
sg15
I0
sg2
I0
sg16
I0
sg18
I0
sg19
I0
sg21
I0
sg22
I0
sg23
I0
sg25
I0
sg17
I0
sg20
I0
sa(dp778
g3
I0
sg4
I0
sg10
I0
sg5
I0
sg7
I0
sg8
I0
sg11
I0
sg9
I0
sg6
I0
sg12
I0
sg13
I0
sg14
I0
sg21
I0
sg2
I0
sg16
I0
sg18
I0
sg19
I1
sg20
I0
sg15
I0
sg22
I0
sg23
I0
sg24
I0
sg17
I0
sg25
I0
sa(dp779
g3
I0
sg4
I0
sg5
I0
sg6
I0
sg7
I0
sg8
I1
sg9
I0
sg10
I0
sg11
I0
sg12
I0
sg13
I0
sg14
I0
sg25
I0
sg15
I0
sg2
I0
sg16
I0
sg18
I0
sg19
I0
sg21
I0
sg22
I0
sg23
I0
sg24
I0
sg17
I0
sg20
I0
sa(dp780
g3
I0
sg4
I0
sg10
I0
sg5
I0
sg7
I1
sg8
I0
sg11
I0
sg9
I0
sg6
I0
sg12
I0
sg13
I0
sg14
I0
sg24
I0
sg21
I0
sg2
I0
sg16
I0
sg18
I0
sg19
I0
sg15
I0
sg22
I0
sg23
I0
sg25
I0
sg17
I0
sg20
I0
sa(dp781
g3
I0
sg4
I0
sg5
I0
sg6
I0
sg7
I1
sg8
I0
sg9
I0
sg10
I0
sg11
I0
sg12
I0
sg13
I0
sg14
I0
sg15
I0
sg2
I0
sg16
I0
sg18
I0
sg19
I0
sg20
I0
sg21
I0
sg22
I0
sg23
I0
sg24
I0
sg17
I0
sg25
I0
sa(dp782
g3
I0
sg4
I0
sg10
I0
sg5
I0
sg7
I0
sg8
I1
sg11
I0
sg9
I0
sg6
I0
sg12
I0
sg13
I0
sg14
I0
sg25
I0
sg21
I0
sg2
I0
sg16
I0
sg18
I0
sg19
I0
sg15
I0
sg22
I0
sg23
I0
sg24
I0
sg17
I0
sg20
I0
sa(dp783
g3
I0
sg4
I0
sg5
I0
sg6
I0
sg7
I0
sg8
I0
sg9
I0
sg10
I0
sg11
I0
sg12
I1
sg13
I0
sg14
I0
sg24
I0
sg15
I0
sg2
I0
sg16
I0
sg18
I0
sg19
I0
sg21
I0
sg22
I0
sg23
I0
sg25
I0
sg17
I0
sg20
I0
sa(dp784
g3
I0
sg4
I0
sg10
I0
sg5
I0
sg7
I0
sg8
I1
sg11
I0
sg9
I0
sg6
I0
sg12
I0
sg13
I0
sg14
I0
sg21
I0
sg2
I0
sg16
I0
sg18
I0
sg19
I0
sg20
I0
sg15
I0
sg22
I0
sg23
I0
sg24
I0
sg17
I0
sg25
I0
sa(dp785
g3
I0
sg4
I0
sg5
I1
sg6
I0
sg7
I0
sg8
I0
sg9
I0
sg10
I0
sg11
I0
sg12
I0
sg13
I0
sg14
I0
sg25
I0
sg15
I0
sg2
I0
sg16
I0
sg18
I0
sg19
I0
sg21
I0
sg22
I0
sg23
I0
sg24
I0
sg17
I0
sg20
I0
sa(dp786
g3
I0
sg4
I0
sg10
I0
sg5
I0
sg7
I0
sg8
I0
sg11
I0
sg9
I1
sg6
I0
sg12
I0
sg13
I0
sg14
I0
sg24
I0
sg21
I0
sg2
I0
sg16
I0
sg18
I0
sg19
I0
sg15
I0
sg22
I0
sg23
I0
sg25
I0
sg17
I0
sg20
I0
sa(dp787
g3
I0
sg4
I0
sg5
I0
sg6
I0
sg7
I1
sg8
I0
sg9
I0
sg10
I0
sg11
I0
sg12
I0
sg13
I0
sg14
I0
sg15
I0
sg2
I0
sg16
I0
sg18
I0
sg19
I0
sg20
I0
sg21
I0
sg22
I0
sg23
I0
sg24
I0
sg17
I0
sg25
I0
sa(dp788
g3
I0
sg4
I0
sg10
I0
sg5
I0
sg7
I0
sg8
I0
sg11
I0
sg9
I0
sg6
I0
sg12
I0
sg13
I0
sg14
I0
sg25
I0
sg21
I0
sg2
I0
sg16
I0
sg18
I0
sg19
I0
sg15
I1
sg22
I0
sg23
I0
sg24
I0
sg17
I0
sg20
I0
sa(dp789
g3
I0
sg4
I0
sg5
I0
sg6
I0
sg7
I1
sg8
I0
sg9
I0
sg10
I0
sg11
I0
sg12
I0
sg13
I0
sg14
I0
sg24
I0
sg15
I0
sg2
I0
sg16
I0
sg18
I0
sg19
I0
sg21
I0
sg22
I0
sg23
I0
sg25
I0
sg17
I0
sg20
I0
sa(dp790
g3
I0
sg4
I0
sg10
I0
sg5
I0
sg7
I0
sg8
I0
sg11
I0
sg9
I0
sg6
I0
sg12
I0
sg13
I0
sg14
I0
sg21
I0
sg2
I1
sg16
I0
sg18
I0
sg19
I0
sg20
I0
sg15
I0
sg22
I0
sg23
I0
sg24
I0
sg17
I0
sg25
I0
sa(dp791
g3
I0
sg4
I0
sg5
I0
sg6
I0
sg7
I0
sg8
I0
sg9
I0
sg10
I0
sg11
I0
sg12
I0
sg13
I0
sg14
I0
sg25
I1
sg15
I0
sg2
I0
sg16
I0
sg18
I0
sg19
I0
sg21
I0
sg22
I0
sg23
I0
sg24
I0
sg17
I0
sg20
I0
sa(dp792
g3
I1
sg4
I0
sg10
I0
sg5
I0
sg7
I0
sg8
I0
sg11
I0
sg9
I0
sg6
I0
sg12
I0
sg13
I0
sg14
I0
sg24
I0
sg21
I0
sg2
I0
sg16
I0
sg18
I0
sg19
I0
sg15
I0
sg22
I0
sg23
I0
sg25
I0
sg17
I0
sg20
I0
sa(dp793
g3
I0
sg4
I0
sg5
I0
sg6
I0
sg7
I0
sg8
I1
sg9
I0
sg10
I0
sg11
I0
sg12
I0
sg13
I0
sg14
I0
sg15
I0
sg2
I0
sg16
I0
sg18
I0
sg19
I0
sg20
I0
sg21
I0
sg22
I0
sg23
I0
sg24
I0
sg17
I0
sg25
I0
sa(dp794
g3
I0
sg4
I0
sg10
I0
sg5
I0
sg7
I0
sg8
I0
sg11
I0
sg9
I0
sg6
I0
sg12
I0
sg13
I0
sg14
I0
sg25
I0
sg21
I1
sg2
I0
sg16
I0
sg18
I0
sg19
I0
sg15
I0
sg22
I0
sg23
I0
sg24
I0
sg17
I0
sg20
I0
sa(dp795
g3
I0
sg4
I0
sg5
I0
sg6
I0
sg7
I0
sg8
I0
sg9
I0
sg10
I0
sg11
I0
sg12
I1
sg13
I0
sg14
I0
sg24
I0
sg15
I0
sg2
I0
sg16
I0
sg18
I0
sg19
I0
sg21
I0
sg22
I0
sg23
I0
sg25
I0
sg17
I0
sg20
I0
sa(dp796
g3
I0
sg4
I0
sg10
I0
sg5
I0
sg7
I1
sg8
I0
sg11
I0
sg9
I0
sg6
I0
sg12
I0
sg13
I0
sg14
I0
sg21
I0
sg2
I0
sg16
I0
sg18
I0
sg19
I0
sg20
I0
sg15
I0
sg22
I0
sg23
I0
sg24
I0
sg17
I0
sg25
I0
sa(dp797
g3
I0
sg4
I0
sg5
I0
sg6
I0
sg7
I0
sg8
I0
sg9
I1
sg10
I0
sg11
I0
sg12
I0
sg13
I0
sg14
I0
sg25
I0
sg15
I0
sg2
I0
sg16
I0
sg18
I0
sg19
I0
sg21
I0
sg22
I0
sg23
I0
sg24
I0
sg17
I0
sg20
I0
sa(dp798
g3
I0
sg4
I0
sg10
I0
sg5
I0
sg7
I0
sg8
I0
sg11
I0
sg9
I0
sg6
I1
sg12
I0
sg13
I0
sg14
I0
sg24
I0
sg21
I0
sg2
I0
sg16
I0
sg18
I0
sg19
I0
sg15
I0
sg22
I0
sg23
I0
sg25
I0
sg17
I0
sg20
I0
sa(dp799
g3
I0
sg4
I0
sg5
I0
sg6
I0
sg7
I0
sg8
I1
sg9
I0
sg10
I0
sg11
I0
sg12
I0
sg13
I0
sg14
I0
sg15
I0
sg2
I0
sg16
I0
sg18
I0
sg19
I0
sg20
I0
sg21
I0
sg22
I0
sg23
I0
sg24
I0
sg17
I0
sg25
I0
sa(dp800
g3
I0
sg4
I0
sg10
I0
sg5
I0
sg7
I0
sg8
I0
sg11
I0
sg9
I0
sg6
I1
sg12
I0
sg13
I0
sg14
I0
sg25
I0
sg21
I0
sg2
I0
sg16
I0
sg18
I0
sg19
I0
sg15
I0
sg22
I0
sg23
I0
sg24
I0
sg17
I0
sg20
I0
sa(dp801
g3
I0
sg4
I0
sg5
I0
sg6
I0
sg7
I0
sg8
I1
sg9
I0
sg10
I0
sg11
I0
sg12
I0
sg13
I0
sg14
I0
sg24
I0
sg15
I0
sg2
I0
sg16
I0
sg18
I0
sg19
I0
sg21
I0
sg22
I0
sg23
I0
sg25
I0
sg17
I0
sg20
I0
sa(dp802
g3
I0
sg4
I0
sg10
I0
sg5
I0
sg7
I0
sg8
I0
sg11
I0
sg9
I0
sg6
I1
sg12
I0
sg13
I0
sg14
I0
sg21
I0
sg2
I0
sg16
I0
sg18
I0
sg19
I0
sg20
I0
sg15
I0
sg22
I0
sg23
I0
sg24
I0
sg17
I0
sg25
I0
sa(dp803
g3
I0
sg4
I0
sg5
I0
sg6
I0
sg7
I0
sg8
I1
sg9
I0
sg10
I0
sg11
I0
sg12
I0
sg13
I0
sg14
I0
sg25
I0
sg15
I0
sg2
I0
sg16
I0
sg18
I0
sg19
I0
sg21
I0
sg22
I0
sg23
I0
sg24
I0
sg17
I0
sg20
I0
sa(dp804
g3
I0
sg4
I0
sg10
I0
sg5
I0
sg7
I0
sg8
I0
sg11
I0
sg9
I0
sg6
I0
sg12
I0
sg13
I0
sg14
I0
sg24
I0
sg21
I0
sg2
I0
sg16
I0
sg18
I0
sg19
I0
sg15
I0
sg22
I0
sg23
I0
sg25
I1
sg17
I0
sg20
I0
sa(dp805
g3
I0
sg4
I0
sg5
I0
sg6
I1
sg7
I0
sg8
I0
sg9
I0
sg10
I0
sg11
I0
sg12
I0
sg13
I0
sg14
I0
sg15
I0
sg2
I0
sg16
I0
sg18
I0
sg19
I0
sg20
I0
sg21
I0
sg22
I0
sg23
I0
sg24
I0
sg17
I0
sg25
I0
sa(dp806
g3
I0
sg4
I0
sg10
I0
sg5
I0
sg7
I0
sg8
I0
sg11
I0
sg9
I0
sg6
I0
sg12
I1
sg13
I0
sg14
I0
sg25
I0
sg21
I0
sg2
I0
sg16
I0
sg18
I0
sg19
I0
sg15
I0
sg22
I0
sg23
I0
sg24
I0
sg17
I0
sg20
I0
sa(dp807
g3
I0
sg4
I0
sg5
I0
sg6
I0
sg7
I0
sg8
I0
sg9
I0
sg10
I0
sg11
I0
sg12
I0
sg13
I0
sg14
I0
sg24
I0
sg15
I1
sg2
I0
sg16
I0
sg18
I0
sg19
I0
sg21
I0
sg22
I0
sg23
I0
sg25
I0
sg17
I0
sg20
I0
sa(dp808
g3
I0
sg4
I0
sg10
I0
sg5
I0
sg7
I0
sg8
I1
sg11
I0
sg9
I0
sg6
I0
sg12
I0
sg13
I0
sg14
I0
sg21
I0
sg2
I0
sg16
I0
sg18
I0
sg19
I0
sg20
I0
sg15
I0
sg22
I0
sg23
I0
sg24
I0
sg17
I0
sg25
I0
sa(dp809
g3
I0
sg4
I0
sg5
I0
sg6
I0
sg7
I0
sg8
I0
sg9
I0
sg10
I0
sg11
I0
sg12
I0
sg13
I0
sg14
I0
sg25
I0
sg15
I1
sg2
I0
sg16
I0
sg18
I0
sg19
I0
sg21
I0
sg22
I0
sg23
I0
sg24
I0
sg17
I0
sg20
I0
sa(dp810
g3
I0
sg4
I0
sg10
I0
sg5
I0
sg7
I1
sg8
I0
sg11
I0
sg9
I0
sg6
I0
sg12
I0
sg13
I0
sg14
I0
sg24
I0
sg21
I0
sg2
I0
sg16
I0
sg18
I0
sg19
I0
sg15
I0
sg22
I0
sg23
I0
sg25
I0
sg17
I0
sg20
I0
sa(dp811
g3
I0
sg4
I1
sg5
I0
sg6
I0
sg7
I0
sg8
I0
sg9
I0
sg10
I0
sg11
I0
sg12
I0
sg13
I0
sg14
I0
sg15
I0
sg2
I0
sg16
I0
sg18
I0
sg19
I0
sg20
I0
sg21
I0
sg22
I0
sg23
I0
sg24
I0
sg17
I0
sg25
I0
sa(dp812
g3
I0
sg4
I0
sg10
I0
sg5
I0
sg7
I0
sg8
I1
sg11
I0
sg9
I0
sg6
I0
sg12
I0
sg13
I0
sg14
I0
sg25
I0
sg21
I0
sg2
I0
sg16
I0
sg18
I0
sg19
I0
sg15
I0
sg22
I0
sg23
I0
sg24
I0
sg17
I0
sg20
I0
sa(dp813
g3
I0
sg4
I0
sg5
I0
sg6
I0
sg7
I0
sg8
I0
sg9
I0
sg10
I0
sg11
I0
sg12
I0
sg13
I0
sg14
I0
sg24
I1
sg15
I0
sg2
I0
sg16
I0
sg18
I0
sg19
I0
sg21
I0
sg22
I0
sg23
I0
sg25
I0
sg17
I0
sg20
I0
sa(dp814
g3
I0
sg4
I0
sg10
I0
sg5
I0
sg7
I0
sg8
I0
sg11
I0
sg9
I0
sg6
I0
sg12
I0
sg13
I0
sg14
I0
sg21
I0
sg2
I1
sg16
I0
sg18
I0
sg19
I0
sg20
I0
sg15
I0
sg22
I0
sg23
I0
sg24
I0
sg17
I0
sg25
I0
sa(dp815
g3
I0
sg4
I0
sg5
I0
sg6
I0
sg7
I0
sg8
I1
sg9
I0
sg10
I0
sg11
I0
sg12
I0
sg13
I0
sg14
I0
sg25
I0
sg15
I0
sg2
I0
sg16
I0
sg18
I0
sg19
I0
sg21
I0
sg22
I0
sg23
I0
sg24
I0
sg17
I0
sg20
I0
sa(dp816
g3
I0
sg4
I0
sg10
I0
sg5
I0
sg7
I0
sg8
I0
sg11
I1
sg9
I0
sg6
I0
sg12
I0
sg13
I0
sg14
I0
sg24
I0
sg21
I0
sg2
I0
sg16
I0
sg18
I0
sg19
I0
sg15
I0
sg22
I0
sg23
I0
sg25
I0
sg17
I0
sg20
I0
sa(dp817
g3
I0
sg4
I0
sg5
I0
sg6
I0
sg7
I0
sg8
I0
sg9
I0
sg10
I0
sg11
I0
sg12
I1
sg13
I0
sg14
I0
sg15
I0
sg2
I0
sg16
I0
sg18
I0
sg19
I0
sg20
I0
sg21
I0
sg22
I0
sg23
I0
sg24
I0
sg17
I0
sg25
I0
sa(dp818
g3
I0
sg4
I0
sg10
I0
sg5
I0
sg7
I1
sg8
I0
sg11
I0
sg9
I0
sg6
I0
sg12
I0
sg13
I0
sg14
I0
sg25
I0
sg21
I0
sg2
I0
sg16
I0
sg18
I0
sg19
I0
sg15
I0
sg22
I0
sg23
I0
sg24
I0
sg17
I0
sg20
I0
sa(dp819
g3
I0
sg4
I0
sg5
I0
sg6
I0
sg7
I0
sg8
I1
sg9
I0
sg10
I0
sg11
I0
sg12
I0
sg13
I0
sg14
I0
sg24
I0
sg15
I0
sg2
I0
sg16
I0
sg18
I0
sg19
I0
sg21
I0
sg22
I0
sg23
I0
sg25
I0
sg17
I0
sg20
I0
sa(dp820
g3
I0
sg4
I0
sg10
I0
sg5
I1
sg7
I0
sg8
I0
sg11
I0
sg9
I0
sg6
I0
sg12
I0
sg13
I0
sg14
I0
sg21
I0
sg2
I0
sg16
I0
sg18
I0
sg19
I0
sg20
I0
sg15
I0
sg22
I0
sg23
I0
sg24
I0
sg17
I0
sg25
I0
sa(dp821
g3
I0
sg4
I0
sg5
I0
sg6
I0
sg7
I0
sg8
I0
sg9
I0
sg10
I0
sg11
I0
sg12
I0
sg13
I0
sg14
I0
sg25
I0
sg15
I0
sg2
I0
sg16
I0
sg18
I0
sg19
I1
sg21
I0
sg22
I0
sg23
I0
sg24
I0
sg17
I0
sg20
I0
sa(dp822
g3
I0
sg4
I1
sg10
I0
sg5
I0
sg7
I0
sg8
I0
sg11
I0
sg9
I0
sg6
I0
sg12
I0
sg13
I0
sg14
I0
sg24
I0
sg21
I0
sg2
I0
sg16
I0
sg18
I0
sg19
I0
sg15
I0
sg22
I0
sg23
I0
sg25
I0
sg17
I0
sg20
I0
sa(dp823
g3
I0
sg4
I0
sg5
I0
sg6
I0
sg7
I0
sg8
I1
sg9
I0
sg10
I0
sg11
I0
sg12
I0
sg13
I0
sg14
I0
sg15
I0
sg2
I0
sg16
I0
sg18
I0
sg19
I0
sg20
I0
sg21
I0
sg22
I0
sg23
I0
sg24
I0
sg17
I0
sg25
I0
sa(dp824
g3
I0
sg4
I0
sg10
I0
sg5
I0
sg7
I0
sg8
I0
sg11
I0
sg9
I0
sg6
I0
sg12
I0
sg13
I0
sg14
I0
sg25
I0
sg21
I0
sg2
I0
sg16
I0
sg18
I0
sg19
I0
sg15
I0
sg22
I0
sg23
I0
sg24
I0
sg17
I0
sg20
I1
sa(dp825
g3
I0
sg4
I0
sg5
I1
sg6
I0
sg7
I0
sg8
I0
sg9
I0
sg10
I0
sg11
I0
sg12
I0
sg13
I0
sg14
I0
sg24
I0
sg15
I0
sg2
I0
sg16
I0
sg18
I0
sg19
I0
sg21
I0
sg22
I0
sg23
I0
sg25
I0
sg17
I0
sg20
I0
sa(dp826
g3
I0
sg4
I0
sg10
I0
sg5
I0
sg7
I0
sg8
I0
sg11
I0
sg9
I0
sg6
I0
sg12
I0
sg13
I0
sg14
I0
sg21
I0
sg2
I0
sg16
I0
sg18
I0
sg19
I0
sg20
I0
sg15
I0
sg22
I0
sg23
I0
sg24
I0
sg17
I0
sg25
I1
sa(dp827
g3
I0
sg4
I0
sg5
I0
sg6
I0
sg7
I0
sg8
I0
sg9
I0
sg10
I0
sg11
I0
sg12
I1
sg13
I0
sg14
I0
sg25
I0
sg15
I0
sg2
I0
sg16
I0
sg18
I0
sg19
I0
sg21
I0
sg22
I0
sg23
I0
sg24
I0
sg17
I0
sg20
I0
sa(dp828
g3
I0
sg4
I0
sg10
I0
sg5
I0
sg7
I0
sg8
I0
sg11
I0
sg9
I0
sg6
I0
sg12
I0
sg13
I0
sg14
I0
sg24
I0
sg21
I0
sg2
I1
sg16
I0
sg18
I0
sg19
I0
sg15
I0
sg22
I0
sg23
I0
sg25
I0
sg17
I0
sg20
I0
sa(dp829
g3
I0
sg4
I0
sg5
I0
sg6
I0
sg7
I0
sg8
I0
sg9
I0
sg10
I0
sg11
I0
sg12
I0
sg13
I0
sg14
I0
sg15
I0
sg2
I0
sg16
I0
sg18
I0
sg19
I1
sg20
I0
sg21
I0
sg22
I0
sg23
I0
sg24
I0
sg17
I0
sg25
I0
sa(dp830
g3
I0
sg4
I0
sg10
I0
sg5
I0
sg7
I0
sg8
I0
sg11
I0
sg9
I0
sg6
I0
sg12
I0
sg13
I0
sg14
I0
sg25
I0
sg21
I0
sg2
I0
sg16
I0
sg18
I0
sg19
I0
sg15
I0
sg22
I0
sg23
I1
sg24
I0
sg17
I0
sg20
I0
sa(dp831
g3
I0
sg4
I0
sg5
I0
sg6
I0
sg7
I0
sg8
I1
sg9
I0
sg10
I0
sg11
I0
sg12
I0
sg13
I0
sg14
I0
sg24
I0
sg15
I0
sg2
I0
sg16
I0
sg18
I0
sg19
I0
sg21
I0
sg22
I0
sg23
I0
sg25
I0
sg17
I0
sg20
I0
sa(dp832
g3
I0
sg4
I0
sg10
I0
sg5
I0
sg7
I0
sg8
I1
sg11
I0
sg9
I0
sg6
I0
sg12
I0
sg13
I0
sg14
I0
sg21
I0
sg2
I0
sg16
I0
sg18
I0
sg19
I0
sg20
I0
sg15
I0
sg22
I0
sg23
I0
sg24
I0
sg17
I0
sg25
I0
sa(dp833
g3
I0
sg4
I0
sg5
I0
sg6
I0
sg7
I0
sg8
I1
sg9
I0
sg10
I0
sg11
I0
sg12
I0
sg13
I0
sg14
I0
sg25
I0
sg15
I0
sg2
I0
sg16
I0
sg18
I0
sg19
I0
sg21
I0
sg22
I0
sg23
I0
sg24
I0
sg17
I0
sg20
I0
sa(dp834
g3
I0
sg4
I0
sg10
I1
sg5
I0
sg7
I0
sg8
I0
sg11
I0
sg9
I0
sg6
I0
sg12
I0
sg13
I0
sg14
I0
sg24
I0
sg21
I0
sg2
I0
sg16
I0
sg18
I0
sg19
I0
sg15
I0
sg22
I0
sg23
I0
sg25
I0
sg17
I0
sg20
I0
sa(dp835
g3
I0
sg4
I0
sg5
I0
sg6
I0
sg7
I0
sg8
I1
sg9
I0
sg10
I0
sg11
I0
sg12
I0
sg13
I0
sg14
I0
sg15
I0
sg2
I0
sg16
I0
sg18
I0
sg19
I0
sg20
I0
sg21
I0
sg22
I0
sg23
I0
sg24
I0
sg17
I0
sg25
I0
sa(dp836
g3
I0
sg4
I0
sg10
I0
sg5
I0
sg7
I0
sg8
I0
sg11
I0
sg9
I0
sg6
I0
sg12
I0
sg13
I0
sg14
I0
sg25
I0
sg21
I0
sg2
I0
sg16
I0
sg18
I0
sg19
I0
sg15
I0
sg22
I0
sg23
I0
sg24
I0
sg17
I0
sg20
I1
sa(dp837
g3
I0
sg4
I0
sg5
I0
sg6
I0
sg7
I0
sg8
I0
sg9
I0
sg10
I0
sg11
I0
sg12
I0
sg13
I0
sg14
I0
sg24
I0
sg15
I1
sg2
I0
sg16
I0
sg18
I0
sg19
I0
sg21
I0
sg22
I0
sg23
I0
sg25
I0
sg17
I0
sg20
I0
sa(dp838
g3
I0
sg4
I0
sg10
I0
sg5
I0
sg7
I0
sg8
I0
sg11
I0
sg9
I0
sg6
I0
sg12
I0
sg13
I0
sg14
I0
sg21
I0
sg2
I0
sg16
I0
sg18
I0
sg19
I0
sg20
I0
sg15
I1
sg22
I0
sg23
I0
sg24
I0
sg17
I0
sg25
I0
sa(dp839
g3
I0
sg4
I0
sg5
I0
sg6
I0
sg7
I1
sg8
I0
sg9
I0
sg10
I0
sg11
I0
sg12
I0
sg13
I0
sg14
I0
sg25
I0
sg15
I0
sg2
I0
sg16
I0
sg18
I0
sg19
I0
sg21
I0
sg22
I0
sg23
I0
sg24
I0
sg17
I0
sg20
I0
sa(dp840
g3
I0
sg4
I0
sg10
I0
sg5
I0
sg7
I0
sg8
I1
sg11
I0
sg9
I0
sg6
I0
sg12
I0
sg13
I0
sg14
I0
sg24
I0
sg21
I0
sg2
I0
sg16
I0
sg18
I0
sg19
I0
sg15
I0
sg22
I0
sg23
I0
sg25
I0
sg17
I0
sg20
I0
sa(dp841
g3
I0
sg4
I0
sg5
I0
sg6
I0
sg7
I0
sg8
I0
sg9
I0
sg10
I0
sg11
I1
sg12
I0
sg13
I0
sg14
I0
sg15
I0
sg2
I0
sg16
I0
sg18
I0
sg19
I0
sg20
I0
sg21
I0
sg22
I0
sg23
I0
sg24
I0
sg17
I0
sg25
I0
sa(dp842
g3
I0
sg4
I0
sg10
I0
sg5
I0
sg7
I1
sg8
I0
sg11
I0
sg9
I0
sg6
I0
sg12
I0
sg13
I0
sg14
I0
sg25
I0
sg21
I0
sg2
I0
sg16
I0
sg18
I0
sg19
I0
sg15
I0
sg22
I0
sg23
I0
sg24
I0
sg17
I0
sg20
I0
sa(dp843
g3
I0
sg4
I0
sg5
I0
sg6
I0
sg7
I0
sg8
I0
sg9
I0
sg10
I0
sg11
I0
sg12
I0
sg13
I0
sg14
I0
sg24
I0
sg15
I1
sg2
I0
sg16
I0
sg18
I0
sg19
I0
sg21
I0
sg22
I0
sg23
I0
sg25
I0
sg17
I0
sg20
I0
sa(dp844
g3
I0
sg4
I0
sg10
I0
sg5
I0
sg7
I0
sg8
I1
sg11
I0
sg9
I0
sg6
I0
sg12
I0
sg13
I0
sg14
I0
sg21
I0
sg2
I0
sg16
I0
sg18
I0
sg19
I0
sg20
I0
sg15
I0
sg22
I0
sg23
I0
sg24
I0
sg17
I0
sg25
I0
sa(dp845
g3
I0
sg4
I0
sg5
I0
sg6
I0
sg7
I0
sg8
I1
sg9
I0
sg10
I0
sg11
I0
sg12
I0
sg13
I0
sg14
I0
sg25
I0
sg15
I0
sg2
I0
sg16
I0
sg18
I0
sg19
I0
sg21
I0
sg22
I0
sg23
I0
sg24
I0
sg17
I0
sg20
I0
sa(dp846
g3
I0
sg4
I0
sg10
I0
sg5
I0
sg7
I1
sg8
I0
sg11
I0
sg9
I0
sg6
I0
sg12
I0
sg13
I0
sg14
I0
sg24
I0
sg21
I0
sg2
I0
sg16
I0
sg18
I0
sg19
I0
sg15
I0
sg22
I0
sg23
I0
sg25
I0
sg17
I0
sg20
I0
sa(dp847
g3
I0
sg4
I1
sg5
I0
sg6
I0
sg7
I0
sg8
I0
sg9
I0
sg10
I0
sg11
I0
sg12
I0
sg13
I0
sg14
I0
sg15
I0
sg2
I0
sg16
I0
sg18
I0
sg19
I0
sg20
I0
sg21
I0
sg22
I0
sg23
I0
sg24
I0
sg17
I0
sg25
I0
sa(dp848
g3
I0
sg4
I0
sg10
I0
sg5
I0
sg7
I1
sg8
I0
sg11
I0
sg9
I0
sg6
I0
sg12
I0
sg13
I0
sg14
I0
sg25
I0
sg21
I0
sg2
I0
sg16
I0
sg18
I0
sg19
I0
sg15
I0
sg22
I0
sg23
I0
sg24
I0
sg17
I0
sg20
I0
sa(dp849
g3
I0
sg4
I0
sg5
I0
sg6
I0
sg7
I0
sg8
I0
sg9
I0
sg10
I0
sg11
I0
sg12
I0
sg13
I0
sg14
I0
sg24
I0
sg15
I0
sg2
I0
sg16
I0
sg18
I1
sg19
I0
sg21
I0
sg22
I0
sg23
I0
sg25
I0
sg17
I0
sg20
I0
sa(dp850
g3
I0
sg4
I0
sg10
I0
sg5
I0
sg7
I0
sg8
I0
sg11
I0
sg9
I0
sg6
I0
sg12
I1
sg13
I0
sg14
I0
sg21
I0
sg2
I0
sg16
I0
sg18
I0
sg19
I0
sg20
I0
sg15
I0
sg22
I0
sg23
I0
sg24
I0
sg17
I0
sg25
I0
sa(dp851
g3
I0
sg4
I0
sg5
I0
sg6
I0
sg7
I0
sg8
I1
sg9
I0
sg10
I0
sg11
I0
sg12
I0
sg13
I0
sg14
I0
sg25
I0
sg15
I0
sg2
I0
sg16
I0
sg18
I0
sg19
I0
sg21
I0
sg22
I0
sg23
I0
sg24
I0
sg17
I0
sg20
I0
sa(dp852
g3
I0
sg4
I0
sg10
I0
sg5
I0
sg7
I0
sg8
I0
sg11
I0
sg9
I0
sg6
I0
sg12
I0
sg13
I0
sg14
I0
sg24
I1
sg21
I0
sg2
I0
sg16
I0
sg18
I0
sg19
I0
sg15
I0
sg22
I0
sg23
I0
sg25
I0
sg17
I0
sg20
I0
sa(dp853
g3
I0
sg4
I0
sg5
I0
sg6
I0
sg7
I0
sg8
I1
sg9
I0
sg10
I0
sg11
I0
sg12
I0
sg13
I0
sg14
I0
sg15
I0
sg2
I0
sg16
I0
sg18
I0
sg19
I0
sg20
I0
sg21
I0
sg22
I0
sg23
I0
sg24
I0
sg17
I0
sg25
I0
sa(dp854
g3
I0
sg4
I0
sg10
I0
sg5
I0
sg7
I0
sg8
I1
sg11
I0
sg9
I0
sg6
I0
sg12
I0
sg13
I0
sg14
I0
sg25
I0
sg21
I0
sg2
I0
sg16
I0
sg18
I0
sg19
I0
sg15
I0
sg22
I0
sg23
I0
sg24
I0
sg17
I0
sg20
I0
sa(dp855
g3
I0
sg4
I0
sg5
I0
sg6
I0
sg7
I0
sg8
I1
sg9
I0
sg10
I0
sg11
I0
sg12
I0
sg13
I0
sg14
I0
sg24
I0
sg15
I0
sg2
I0
sg16
I0
sg18
I0
sg19
I0
sg21
I0
sg22
I0
sg23
I0
sg25
I0
sg17
I0
sg20
I0
sa(dp856
g3
I0
sg4
I0
sg10
I0
sg5
I0
sg7
I0
sg8
I0
sg11
I0
sg9
I0
sg6
I0
sg12
I0
sg13
I0
sg14
I0
sg21
I0
sg2
I0
sg16
I0
sg18
I0
sg19
I0
sg20
I0
sg15
I1
sg22
I0
sg23
I0
sg24
I0
sg17
I0
sg25
I0
sa(dp857
g3
I0
sg4
I0
sg5
I0
sg6
I0
sg7
I0
sg8
I1
sg9
I0
sg10
I0
sg11
I0
sg12
I0
sg13
I0
sg14
I0
sg25
I0
sg15
I0
sg2
I0
sg16
I0
sg18
I0
sg19
I0
sg21
I0
sg22
I0
sg23
I0
sg24
I0
sg17
I0
sg20
I0
sa(dp858
g3
I0
sg4
I0
sg10
I0
sg5
I0
sg7
I0
sg8
I0
sg11
I0
sg9
I0
sg6
I0
sg12
I0
sg13
I0
sg14
I0
sg24
I1
sg21
I0
sg2
I0
sg16
I0
sg18
I0
sg19
I0
sg15
I0
sg22
I0
sg23
I0
sg25
I0
sg17
I0
sg20
I0
sa(dp859
g3
I0
sg4
I0
sg5
I0
sg6
I0
sg7
I0
sg8
I0
sg9
I0
sg10
I0
sg11
I1
sg12
I0
sg13
I0
sg14
I0
sg15
I0
sg2
I0
sg16
I0
sg18
I0
sg19
I0
sg20
I0
sg21
I0
sg22
I0
sg23
I0
sg24
I0
sg17
I0
sg25
I0
sa(dp860
g3
I0
sg4
I0
sg10
I0
sg5
I0
sg7
I0
sg8
I0
sg11
I0
sg9
I0
sg6
I0
sg12
I0
sg13
I0
sg14
I0
sg25
I1
sg21
I0
sg2
I0
sg16
I0
sg18
I0
sg19
I0
sg15
I0
sg22
I0
sg23
I0
sg24
I0
sg17
I0
sg20
I0
sa(dp861
g3
I0
sg4
I1
sg5
I0
sg6
I0
sg7
I0
sg8
I0
sg9
I0
sg10
I0
sg11
I0
sg12
I0
sg13
I0
sg14
I0
sg24
I0
sg15
I0
sg2
I0
sg16
I0
sg18
I0
sg19
I0
sg21
I0
sg22
I0
sg23
I0
sg25
I0
sg17
I0
sg20
I0
sa(dp862
g3
I0
sg4
I0
sg10
I0
sg5
I0
sg7
I0
sg8
I0
sg11
I0
sg9
I0
sg6
I0
sg12
I0
sg13
I0
sg14
I0
sg21
I0
sg2
I1
sg16
I0
sg18
I0
sg19
I0
sg20
I0
sg15
I0
sg22
I0
sg23
I0
sg24
I0
sg17
I0
sg25
I0
sa(dp863
g3
I0
sg4
I0
sg5
I0
sg6
I0
sg7
I0
sg8
I1
sg9
I0
sg10
I0
sg11
I0
sg12
I0
sg13
I0
sg14
I0
sg25
I0
sg15
I0
sg2
I0
sg16
I0
sg18
I0
sg19
I0
sg21
I0
sg22
I0
sg23
I0
sg24
I0
sg17
I0
sg20
I0
sa(dp864
g3
I0
sg4
I0
sg10
I0
sg5
I0
sg7
I0
sg8
I1
sg11
I0
sg9
I0
sg6
I0
sg12
I0
sg13
I0
sg14
I0
sg24
I0
sg21
I0
sg2
I0
sg16
I0
sg18
I0
sg19
I0
sg15
I0
sg22
I0
sg23
I0
sg25
I0
sg17
I0
sg20
I0
sa(dp865
g3
I0
sg4
I0
sg5
I0
sg6
I0
sg7
I0
sg8
I1
sg9
I0
sg10
I0
sg11
I0
sg12
I0
sg13
I0
sg14
I0
sg15
I0
sg2
I0
sg16
I0
sg18
I0
sg19
I0
sg20
I0
sg21
I0
sg22
I0
sg23
I0
sg24
I0
sg17
I0
sg25
I0
sa(dp866
g3
I0
sg4
I0
sg10
I0
sg5
I0
sg7
I0
sg8
I0
sg11
I0
sg9
I0
sg6
I0
sg12
I0
sg13
I0
sg14
I0
sg25
I0
sg21
I0
sg2
I0
sg16
I0
sg18
I1
sg19
I0
sg15
I0
sg22
I0
sg23
I0
sg24
I0
sg17
I0
sg20
I0
sa(dp867
g3
I0
sg4
I0
sg5
I0
sg6
I0
sg7
I1
sg8
I0
sg9
I0
sg10
I0
sg11
I0
sg12
I0
sg13
I0
sg14
I0
sg24
I0
sg15
I0
sg2
I0
sg16
I0
sg18
I0
sg19
I0
sg21
I0
sg22
I0
sg23
I0
sg25
I0
sg17
I0
sg20
I0
sa(dp868
g3
I0
sg4
I0
sg10
I0
sg5
I0
sg7
I0
sg8
I0
sg11
I0
sg9
I0
sg6
I0
sg12
I1
sg13
I0
sg14
I0
sg21
I0
sg2
I0
sg16
I0
sg18
I0
sg19
I0
sg20
I0
sg15
I0
sg22
I0
sg23
I0
sg24
I0
sg17
I0
sg25
I0
sa(dp869
g3
I0
sg4
I0
sg5
I0
sg6
I0
sg7
I0
sg8
I1
sg9
I0
sg10
I0
sg11
I0
sg12
I0
sg13
I0
sg14
I0
sg25
I0
sg15
I0
sg2
I0
sg16
I0
sg18
I0
sg19
I0
sg21
I0
sg22
I0
sg23
I0
sg24
I0
sg17
I0
sg20
I0
sa(dp870
g3
I0
sg4
I0
sg10
I0
sg5
I0
sg7
I0
sg8
I0
sg11
I0
sg9
I0
sg6
I0
sg12
I1
sg13
I0
sg14
I0
sg24
I0
sg21
I0
sg2
I0
sg16
I0
sg18
I0
sg19
I0
sg15
I0
sg22
I0
sg23
I0
sg25
I0
sg17
I0
sg20
I0
sa(dp871
g3
I0
sg4
I0
sg5
I0
sg6
I0
sg7
I0
sg8
I1
sg9
I0
sg10
I0
sg11
I0
sg12
I0
sg13
I0
sg14
I0
sg15
I0
sg2
I0
sg16
I0
sg18
I0
sg19
I0
sg20
I0
sg21
I0
sg22
I0
sg23
I0
sg24
I0
sg17
I0
sg25
I0
sa(dp872
g3
I0
sg4
I0
sg10
I0
sg5
I0
sg7
I0
sg8
I0
sg11
I0
sg9
I0
sg6
I0
sg12
I0
sg13
I0
sg14
I0
sg25
I0
sg21
I0
sg2
I0
sg16
I0
sg18
I0
sg19
I0
sg15
I1
sg22
I0
sg23
I0
sg24
I0
sg17
I0
sg20
I0
sa(dp873
g3
I0
sg4
I0
sg5
I0
sg6
I0
sg7
I1
sg8
I0
sg9
I0
sg10
I0
sg11
I0
sg12
I0
sg13
I0
sg14
I0
sg24
I0
sg15
I0
sg2
I0
sg16
I0
sg18
I0
sg19
I0
sg21
I0
sg22
I0
sg23
I0
sg25
I0
sg17
I0
sg20
I0
sa(dp874
g3
I0
sg4
I0
sg10
I0
sg5
I0
sg7
I0
sg8
I0
sg11
I0
sg9
I0
sg6
I0
sg12
I0
sg13
I0
sg14
I1
sg21
I0
sg2
I0
sg16
I0
sg18
I0
sg19
I0
sg20
I0
sg15
I0
sg22
I0
sg23
I0
sg24
I0
sg17
I0
sg25
I0
sa(dp875
g3
I0
sg4
I0
sg5
I0
sg6
I0
sg7
I0
sg8
I0
sg9
I1
sg10
I0
sg11
I0
sg12
I0
sg13
I0
sg14
I0
sg25
I0
sg15
I0
sg2
I0
sg16
I0
sg18
I0
sg19
I0
sg21
I0
sg22
I0
sg23
I0
sg24
I0
sg17
I0
sg20
I0
sa(dp876
g3
I0
sg4
I0
sg10
I0
sg5
I0
sg7
I0
sg8
I0
sg11
I0
sg9
I0
sg6
I0
sg12
I0
sg13
I0
sg14
I0
sg24
I0
sg21
I0
sg2
I0
sg16
I1
sg18
I0
sg19
I0
sg15
I0
sg22
I0
sg23
I0
sg25
I0
sg17
I0
sg20
I0
sa(dp877
g3
I0
sg4
I0
sg5
I0
sg6
I0
sg7
I0
sg8
I0
sg9
I0
sg10
I0
sg11
I0
sg12
I0
sg13
I0
sg14
I0
sg15
I0
sg2
I0
sg16
I0
sg18
I0
sg19
I0
sg20
I0
sg21
I1
sg22
I0
sg23
I0
sg24
I0
sg17
I0
sg25
I0
sa(dp878
g3
I0
sg4
I0
sg10
I0
sg5
I0
sg7
I0
sg8
I0
sg11
I0
sg9
I0
sg6
I0
sg12
I0
sg13
I0
sg14
I0
sg25
I0
sg21
I0
sg2
I0
sg16
I0
sg18
I0
sg19
I1
sg15
I0
sg22
I0
sg23
I0
sg24
I0
sg17
I0
sg20
I0
sa(dp879
g3
I0
sg4
I0
sg5
I0
sg6
I0
sg7
I0
sg8
I0
sg9
I0
sg10
I0
sg11
I0
sg12
I0
sg13
I0
sg14
I0
sg24
I0
sg15
I1
sg2
I0
sg16
I0
sg18
I0
sg19
I0
sg21
I0
sg22
I0
sg23
I0
sg25
I0
sg17
I0
sg20
I0
sa(dp880
g3
I0
sg4
I0
sg10
I0
sg5
I0
sg7
I1
sg8
I0
sg11
I0
sg9
I0
sg6
I0
sg12
I0
sg13
I0
sg14
I0
sg21
I0
sg2
I0
sg16
I0
sg18
I0
sg19
I0
sg20
I0
sg15
I0
sg22
I0
sg23
I0
sg24
I0
sg17
I0
sg25
I0
sa(dp881
g3
I0
sg4
I0
sg5
I0
sg6
I0
sg7
I0
sg8
I0
sg9
I0
sg10
I1
sg11
I0
sg12
I0
sg13
I0
sg14
I0
sg25
I0
sg15
I0
sg2
I0
sg16
I0
sg18
I0
sg19
I0
sg21
I0
sg22
I0
sg23
I0
sg24
I0
sg17
I0
sg20
I0
sa(dp882
g3
I0
sg4
I0
sg10
I0
sg5
I0
sg7
I0
sg8
I0
sg11
I0
sg9
I0
sg6
I1
sg12
I0
sg13
I0
sg14
I0
sg24
I0
sg21
I0
sg2
I0
sg16
I0
sg18
I0
sg19
I0
sg15
I0
sg22
I0
sg23
I0
sg25
I0
sg17
I0
sg20
I0
sa(dp883
g3
I0
sg4
I0
sg5
I0
sg6
I0
sg7
I0
sg8
I0
sg9
I0
sg10
I0
sg11
I0
sg12
I1
sg13
I0
sg14
I0
sg15
I0
sg2
I0
sg16
I0
sg18
I0
sg19
I0
sg20
I0
sg21
I0
sg22
I0
sg23
I0
sg24
I0
sg17
I0
sg25
I0
sa(dp884
g3
I0
sg4
I0
sg10
I0
sg5
I0
sg7
I0
sg8
I0
sg11
I0
sg9
I1
sg6
I0
sg12
I0
sg13
I0
sg14
I0
sg25
I0
sg21
I0
sg2
I0
sg16
I0
sg18
I0
sg19
I0
sg15
I0
sg22
I0
sg23
I0
sg24
I0
sg17
I0
sg20
I0
sa(dp885
g3
I0
sg4
I0
sg5
I0
sg6
I0
sg7
I0
sg8
I1
sg9
I0
sg10
I0
sg11
I0
sg12
I0
sg13
I0
sg14
I0
sg24
I0
sg15
I0
sg2
I0
sg16
I0
sg18
I0
sg19
I0
sg21
I0
sg22
I0
sg23
I0
sg25
I0
sg17
I0
sg20
I0
sa(dp886
g3
I0
sg4
I0
sg10
I0
sg5
I0
sg7
I0
sg8
I1
sg11
I0
sg9
I0
sg6
I0
sg12
I0
sg13
I0
sg14
I0
sg21
I0
sg2
I0
sg16
I0
sg18
I0
sg19
I0
sg20
I0
sg15
I0
sg22
I0
sg23
I0
sg24
I0
sg17
I0
sg25
I0
sa(dp887
g3
I0
sg4
I0
sg5
I0
sg6
I0
sg7
I1
sg8
I0
sg9
I0
sg10
I0
sg11
I0
sg12
I0
sg13
I0
sg14
I0
sg25
I0
sg15
I0
sg2
I0
sg16
I0
sg18
I0
sg19
I0
sg21
I0
sg22
I0
sg23
I0
sg24
I0
sg17
I0
sg20
I0
sa(dp888
g3
I0
sg4
I0
sg10
I0
sg5
I0
sg7
I0
sg8
I0
sg11
I0
sg9
I0
sg6
I0
sg12
I0
sg13
I0
sg14
I0
sg24
I0
sg21
I0
sg2
I0
sg16
I0
sg18
I0
sg19
I1
sg15
I0
sg22
I0
sg23
I0
sg25
I0
sg17
I0
sg20
I0
sa(dp889
g3
I0
sg4
I0
sg5
I0
sg6
I0
sg7
I1
sg8
I0
sg9
I0
sg10
I0
sg11
I0
sg12
I0
sg13
I0
sg14
I0
sg15
I0
sg2
I0
sg16
I0
sg18
I0
sg19
I0
sg20
I0
sg21
I0
sg22
I0
sg23
I0
sg24
I0
sg17
I0
sg25
I0
sa(dp890
g3
I0
sg4
I0
sg10
I0
sg5
I0
sg7
I0
sg8
I0
sg11
I0
sg9
I0
sg6
I0
sg12
I0
sg13
I0
sg14
I0
sg25
I0
sg21
I0
sg2
I0
sg16
I1
sg18
I0
sg19
I0
sg15
I0
sg22
I0
sg23
I0
sg24
I0
sg17
I0
sg20
I0
sa(dp891
g3
I0
sg4
I0
sg5
I0
sg6
I0
sg7
I0
sg8
I0
sg9
I0
sg10
I0
sg11
I0
sg12
I1
sg13
I0
sg14
I0
sg24
I0
sg15
I0
sg2
I0
sg16
I0
sg18
I0
sg19
I0
sg21
I0
sg22
I0
sg23
I0
sg25
I0
sg17
I0
sg20
I0
sa(dp892
g3
I0
sg4
I0
sg10
I0
sg5
I0
sg7
I0
sg8
I1
sg11
I0
sg9
I0
sg6
I0
sg12
I0
sg13
I0
sg14
I0
sg21
I0
sg2
I0
sg16
I0
sg18
I0
sg19
I0
sg20
I0
sg15
I0
sg22
I0
sg23
I0
sg24
I0
sg17
I0
sg25
I0
sa(dp893
g3
I0
sg4
I0
sg5
I0
sg6
I0
sg7
I0
sg8
I0
sg9
I0
sg10
I0
sg11
I0
sg12
I0
sg13
I0
sg14
I0
sg25
I0
sg15
I0
sg2
I0
sg16
I0
sg18
I0
sg19
I0
sg21
I1
sg22
I0
sg23
I0
sg24
I0
sg17
I0
sg20
I0
sa(dp894
g3
I0
sg4
I0
sg10
I0
sg5
I0
sg7
I0
sg8
I0
sg11
I0
sg9
I0
sg6
I0
sg12
I1
sg13
I0
sg14
I0
sg24
I0
sg21
I0
sg2
I0
sg16
I0
sg18
I0
sg19
I0
sg15
I0
sg22
I0
sg23
I0
sg25
I0
sg17
I0
sg20
I0
sa(dp895
g3
I0
sg4
I0
sg5
I0
sg6
I0
sg7
I0
sg8
I1
sg9
I0
sg10
I0
sg11
I0
sg12
I0
sg13
I0
sg14
I0
sg15
I0
sg2
I0
sg16
I0
sg18
I0
sg19
I0
sg20
I0
sg21
I0
sg22
I0
sg23
I0
sg24
I0
sg17
I0
sg25
I0
sa(dp896
g3
I0
sg4
I0
sg10
I0
sg5
I0
sg7
I0
sg8
I1
sg11
I0
sg9
I0
sg6
I0
sg12
I0
sg13
I0
sg14
I0
sg25
I0
sg21
I0
sg2
I0
sg16
I0
sg18
I0
sg19
I0
sg15
I0
sg22
I0
sg23
I0
sg24
I0
sg17
I0
sg20
I0
sa(dp897
g3
I0
sg4
I0
sg5
I0
sg6
I0
sg7
I0
sg8
I1
sg9
I0
sg10
I0
sg11
I0
sg12
I0
sg13
I0
sg14
I0
sg24
I0
sg15
I0
sg2
I0
sg16
I0
sg18
I0
sg19
I0
sg21
I0
sg22
I0
sg23
I0
sg25
I0
sg17
I0
sg20
I0
sa(dp898
g3
I0
sg4
I0
sg10
I0
sg5
I0
sg7
I0
sg8
I0
sg11
I0
sg9
I0
sg6
I0
sg12
I0
sg13
I0
sg14
I0
sg21
I0
sg2
I0
sg16
I0
sg18
I0
sg19
I0
sg20
I0
sg15
I0
sg22
I0
sg23
I1
sg24
I0
sg17
I0
sg25
I0
sa(dp899
g3
I0
sg4
I0
sg5
I0
sg6
I1
sg7
I0
sg8
I0
sg9
I0
sg10
I0
sg11
I0
sg12
I0
sg13
I0
sg14
I0
sg25
I0
sg15
I0
sg2
I0
sg16
I0
sg18
I0
sg19
I0
sg21
I0
sg22
I0
sg23
I0
sg24
I0
sg17
I0
sg20
I0
sa(dp900
g3
I0
sg4
I0
sg10
I0
sg5
I0
sg7
I0
sg8
I0
sg11
I0
sg9
I0
sg6
I0
sg12
I0
sg13
I0
sg14
I0
sg24
I0
sg21
I0
sg2
I1
sg16
I0
sg18
I0
sg19
I0
sg15
I0
sg22
I0
sg23
I0
sg25
I0
sg17
I0
sg20
I0
sa(dp901
g3
I0
sg4
I0
sg5
I0
sg6
I0
sg7
I0
sg8
I0
sg9
I0
sg10
I0
sg11
I0
sg12
I0
sg13
I0
sg14
I1
sg15
I0
sg2
I0
sg16
I0
sg18
I0
sg19
I0
sg20
I0
sg21
I0
sg22
I0
sg23
I0
sg24
I0
sg17
I0
sg25
I0
sa(dp902
g3
I0
sg4
I0
sg10
I0
sg5
I0
sg7
I0
sg8
I0
sg11
I0
sg9
I0
sg6
I0
sg12
I0
sg13
I0
sg14
I0
sg25
I0
sg21
I0
sg2
I0
sg16
I0
sg18
I0
sg19
I1
sg15
I0
sg22
I0
sg23
I0
sg24
I0
sg17
I0
sg20
I0
sa(dp903
g3
I0
sg4
I0
sg5
I0
sg6
I0
sg7
I1
sg8
I0
sg9
I0
sg10
I0
sg11
I0
sg12
I0
sg13
I0
sg14
I0
sg24
I0
sg15
I0
sg2
I0
sg16
I0
sg18
I0
sg19
I0
sg21
I0
sg22
I0
sg23
I0
sg25
I0
sg17
I0
sg20
I0
sa(dp904
g3
I0
sg4
I0
sg10
I0
sg5
I1
sg7
I0
sg8
I0
sg11
I0
sg9
I0
sg6
I0
sg12
I0
sg13
I0
sg14
I0
sg21
I0
sg2
I0
sg16
I0
sg18
I0
sg19
I0
sg20
I0
sg15
I0
sg22
I0
sg23
I0
sg24
I0
sg17
I0
sg25
I0
sa(dp905
g3
I0
sg4
I0
sg5
I0
sg6
I0
sg7
I0
sg8
I1
sg9
I0
sg10
I0
sg11
I0
sg12
I0
sg13
I0
sg14
I0
sg25
I0
sg15
I0
sg2
I0
sg16
I0
sg18
I0
sg19
I0
sg21
I0
sg22
I0
sg23
I0
sg24
I0
sg17
I0
sg20
I0
sa(dp906
g3
I0
sg4
I0
sg10
I0
sg5
I0
sg7
I1
sg8
I0
sg11
I0
sg9
I0
sg6
I0
sg12
I0
sg13
I0
sg14
I0
sg24
I0
sg21
I0
sg2
I0
sg16
I0
sg18
I0
sg19
I0
sg15
I0
sg22
I0
sg23
I0
sg25
I0
sg17
I0
sg20
I0
sa(dp907
g3
I0
sg4
I0
sg5
I0
sg6
I0
sg7
I0
sg8
I0
sg9
I0
sg10
I0
sg11
I0
sg12
I0
sg13
I0
sg14
I0
sg15
I0
sg2
I0
sg16
I0
sg18
I0
sg19
I0
sg20
I0
sg21
I0
sg22
I0
sg23
I1
sg24
I0
sg17
I0
sg25
I0
sa(dp908
g3
I0
sg4
I0
sg10
I0
sg5
I0
sg7
I0
sg8
I1
sg11
I0
sg9
I0
sg6
I0
sg12
I0
sg13
I0
sg14
I0
sg25
I0
sg21
I0
sg2
I0
sg16
I0
sg18
I0
sg19
I0
sg15
I0
sg22
I0
sg23
I0
sg24
I0
sg17
I0
sg20
I0
sa(dp909
g3
I0
sg4
I0
sg5
I0
sg6
I0
sg7
I0
sg8
I0
sg9
I0
sg10
I0
sg11
I0
sg12
I0
sg13
I0
sg14
I1
sg24
I0
sg15
I0
sg2
I0
sg16
I0
sg18
I0
sg19
I0
sg21
I0
sg22
I0
sg23
I0
sg25
I0
sg17
I0
sg20
I0
sa(dp910
g3
I0
sg4
I0
sg10
I0
sg5
I0
sg7
I0
sg8
I1
sg11
I0
sg9
I0
sg6
I0
sg12
I0
sg13
I0
sg14
I0
sg21
I0
sg2
I0
sg16
I0
sg18
I0
sg19
I0
sg20
I0
sg15
I0
sg22
I0
sg23
I0
sg24
I0
sg17
I0
sg25
I0
sa(dp911
g3
I0
sg4
I0
sg5
I0
sg6
I0
sg7
I0
sg8
I0
sg9
I0
sg10
I0
sg11
I0
sg12
I1
sg13
I0
sg14
I0
sg25
I0
sg15
I0
sg2
I0
sg16
I0
sg18
I0
sg19
I0
sg21
I0
sg22
I0
sg23
I0
sg24
I0
sg17
I0
sg20
I0
sa(dp912
g3
I0
sg4
I0
sg10
I0
sg5
I0
sg7
I0
sg8
I1
sg11
I0
sg9
I0
sg6
I0
sg12
I0
sg13
I0
sg14
I0
sg24
I0
sg21
I0
sg2
I0
sg16
I0
sg18
I0
sg19
I0
sg15
I0
sg22
I0
sg23
I0
sg25
I0
sg17
I0
sg20
I0
sa(dp913
g3
I0
sg4
I0
sg5
I0
sg6
I0
sg7
I0
sg8
I0
sg9
I0
sg10
I1
sg11
I0
sg12
I0
sg13
I0
sg14
I0
sg15
I0
sg2
I0
sg16
I0
sg18
I0
sg19
I0
sg20
I0
sg21
I0
sg22
I0
sg23
I0
sg24
I0
sg17
I0
sg25
I0
sa(dp914
g3
I0
sg4
I0
sg10
I0
sg5
I0
sg7
I1
sg8
I0
sg11
I0
sg9
I0
sg6
I0
sg12
I0
sg13
I0
sg14
I0
sg25
I0
sg21
I0
sg2
I0
sg16
I0
sg18
I0
sg19
I0
sg15
I0
sg22
I0
sg23
I0
sg24
I0
sg17
I0
sg20
I0
sa(dp915
g3
I0
sg4
I0
sg5
I0
sg6
I0
sg7
I0
sg8
I0
sg9
I0
sg10
I0
sg11
I0
sg12
I0
sg13
I0
sg14
I0
sg24
I0
sg15
I0
sg2
I0
sg16
I1
sg18
I0
sg19
I0
sg21
I0
sg22
I0
sg23
I0
sg25
I0
sg17
I0
sg20
I0
sa(dp916
g3
I0
sg4
I0
sg10
I0
sg5
I0
sg7
I0
sg8
I0
sg11
I0
sg9
I0
sg6
I0
sg12
I0
sg13
I0
sg14
I0
sg21
I0
sg2
I0
sg16
I0
sg18
I0
sg19
I1
sg20
I0
sg15
I0
sg22
I0
sg23
I0
sg24
I0
sg17
I0
sg25
I0
sa(dp917
g3
I0
sg4
I0
sg5
I0
sg6
I0
sg7
I0
sg8
I0
sg9
I0
sg10
I0
sg11
I1
sg12
I0
sg13
I0
sg14
I0
sg25
I0
sg15
I0
sg2
I0
sg16
I0
sg18
I0
sg19
I0
sg21
I0
sg22
I0
sg23
I0
sg24
I0
sg17
I0
sg20
I0
sa(dp918
g3
I1
sg4
I0
sg10
I0
sg5
I0
sg7
I0
sg8
I0
sg11
I0
sg9
I0
sg6
I0
sg12
I0
sg13
I0
sg14
I0
sg24
I0
sg21
I0
sg2
I0
sg16
I0
sg18
I0
sg19
I0
sg15
I0
sg22
I0
sg23
I0
sg25
I0
sg17
I0
sg20
I0
sa(dp919
g3
I0
sg4
I0
sg5
I0
sg6
I0
sg7
I0
sg8
I0
sg9
I0
sg10
I0
sg11
I0
sg12
I0
sg13
I0
sg14
I0
sg15
I1
sg2
I0
sg16
I0
sg18
I0
sg19
I0
sg20
I0
sg21
I0
sg22
I0
sg23
I0
sg24
I0
sg17
I0
sg25
I0
sa(dp920
g3
I0
sg4
I0
sg10
I0
sg5
I0
sg7
I0
sg8
I0
sg11
I0
sg9
I0
sg6
I0
sg12
I0
sg13
I0
sg14
I0
sg25
I0
sg21
I0
sg2
I0
sg16
I1
sg18
I0
sg19
I0
sg15
I0
sg22
I0
sg23
I0
sg24
I0
sg17
I0
sg20
I0
sa(dp921
g3
I0
sg4
I0
sg5
I0
sg6
I0
sg7
I1
sg8
I0
sg9
I0
sg10
I0
sg11
I0
sg12
I0
sg13
I0
sg14
I0
sg24
I0
sg15
I0
sg2
I0
sg16
I0
sg18
I0
sg19
I0
sg21
I0
sg22
I0
sg23
I0
sg25
I0
sg17
I0
sg20
I0
sa(dp922
g3
I0
sg4
I0
sg10
I0
sg5
I0
sg7
I0
sg8
I1
sg11
I0
sg9
I0
sg6
I0
sg12
I0
sg13
I0
sg14
I0
sg21
I0
sg2
I0
sg16
I0
sg18
I0
sg19
I0
sg20
I0
sg15
I0
sg22
I0
sg23
I0
sg24
I0
sg17
I0
sg25
I0
sa(dp923
g3
I0
sg4
I0
sg5
I0
sg6
I0
sg7
I0
sg8
I0
sg9
I0
sg10
I0
sg11
I0
sg12
I0
sg13
I0
sg14
I0
sg25
I0
sg15
I0
sg2
I0
sg16
I0
sg18
I0
sg19
I0
sg21
I0
sg22
I0
sg23
I0
sg24
I0
sg17
I1
sg20
I0
sa(dp924
g3
I0
sg4
I0
sg10
I0
sg5
I0
sg7
I1
sg8
I0
sg11
I0
sg9
I0
sg6
I0
sg12
I0
sg13
I0
sg14
I0
sg24
I0
sg21
I0
sg2
I0
sg16
I0
sg18
I0
sg19
I0
sg15
I0
sg22
I0
sg23
I0
sg25
I0
sg17
I0
sg20
I0
sa(dp925
g3
I0
sg4
I0
sg5
I0
sg6
I0
sg7
I0
sg8
I1
sg9
I0
sg10
I0
sg11
I0
sg12
I0
sg13
I0
sg14
I0
sg15
I0
sg2
I0
sg16
I0
sg18
I0
sg19
I0
sg20
I0
sg21
I0
sg22
I0
sg23
I0
sg24
I0
sg17
I0
sg25
I0
sa(dp926
g3
I0
sg4
I0
sg10
I0
sg5
I0
sg7
I0
sg8
I0
sg11
I0
sg9
I1
sg6
I0
sg12
I0
sg13
I0
sg14
I0
sg25
I0
sg21
I0
sg2
I0
sg16
I0
sg18
I0
sg19
I0
sg15
I0
sg22
I0
sg23
I0
sg24
I0
sg17
I0
sg20
I0
sa(dp927
g3
I0
sg4
I0
sg5
I0
sg6
I0
sg7
I0
sg8
I0
sg9
I0
sg10
I0
sg11
I0
sg12
I0
sg13
I0
sg14
I0
sg24
I0
sg15
I0
sg2
I0
sg16
I0
sg18
I0
sg19
I1
sg21
I0
sg22
I0
sg23
I0
sg25
I0
sg17
I0
sg20
I0
sa(dp928
g3
I0
sg4
I0
sg10
I0
sg5
I0
sg7
I1
sg8
I0
sg11
I0
sg9
I0
sg6
I0
sg12
I0
sg13
I0
sg14
I0
sg21
I0
sg2
I0
sg16
I0
sg18
I0
sg19
I0
sg20
I0
sg15
I0
sg22
I0
sg23
I0
sg24
I0
sg17
I0
sg25
I0
sa(dp929
g3
I0
sg4
I0
sg5
I0
sg6
I0
sg7
I0
sg8
I1
sg9
I0
sg10
I0
sg11
I0
sg12
I0
sg13
I0
sg14
I0
sg25
I0
sg15
I0
sg2
I0
sg16
I0
sg18
I0
sg19
I0
sg21
I0
sg22
I0
sg23
I0
sg24
I0
sg17
I0
sg20
I0
sa(dp930
g3
I0
sg4
I0
sg10
I0
sg5
I0
sg7
I1
sg8
I0
sg11
I0
sg9
I0
sg6
I0
sg12
I0
sg13
I0
sg14
I0
sg24
I0
sg21
I0
sg2
I0
sg16
I0
sg18
I0
sg19
I0
sg15
I0
sg22
I0
sg23
I0
sg25
I0
sg17
I0
sg20
I0
sa(dp931
g3
I0
sg4
I0
sg5
I0
sg6
I0
sg7
I0
sg8
I0
sg9
I0
sg10
I0
sg11
I0
sg12
I0
sg13
I0
sg14
I0
sg15
I0
sg2
I0
sg16
I0
sg18
I0
sg19
I0
sg20
I0
sg21
I0
sg22
I0
sg23
I1
sg24
I0
sg17
I0
sg25
I0
sa(dp932
g3
I0
sg4
I0
sg10
I0
sg5
I0
sg7
I0
sg8
I0
sg11
I0
sg9
I0
sg6
I1
sg12
I0
sg13
I0
sg14
I0
sg25
I0
sg21
I0
sg2
I0
sg16
I0
sg18
I0
sg19
I0
sg15
I0
sg22
I0
sg23
I0
sg24
I0
sg17
I0
sg20
I0
sa(dp933
g3
I0
sg4
I0
sg5
I0
sg6
I0
sg7
I1
sg8
I0
sg9
I0
sg10
I0
sg11
I0
sg12
I0
sg13
I0
sg14
I0
sg24
I0
sg15
I0
sg2
I0
sg16
I0
sg18
I0
sg19
I0
sg21
I0
sg22
I0
sg23
I0
sg25
I0
sg17
I0
sg20
I0
sa(dp934
g3
I0
sg4
I0
sg10
I0
sg5
I0
sg7
I0
sg8
I1
sg11
I0
sg9
I0
sg6
I0
sg12
I0
sg13
I0
sg14
I0
sg21
I0
sg2
I0
sg16
I0
sg18
I0
sg19
I0
sg20
I0
sg15
I0
sg22
I0
sg23
I0
sg24
I0
sg17
I0
sg25
I0
sa(dp935
g3
I0
sg4
I0
sg5
I0
sg6
I0
sg7
I0
sg8
I0
sg9
I0
sg10
I0
sg11
I0
sg12
I1
sg13
I0
sg14
I0
sg25
I0
sg15
I0
sg2
I0
sg16
I0
sg18
I0
sg19
I0
sg21
I0
sg22
I0
sg23
I0
sg24
I0
sg17
I0
sg20
I0
sa(dp936
g3
I0
sg4
I0
sg10
I0
sg5
I0
sg7
I1
sg8
I0
sg11
I0
sg9
I0
sg6
I0
sg12
I0
sg13
I0
sg14
I0
sg24
I0
sg21
I0
sg2
I0
sg16
I0
sg18
I0
sg19
I0
sg15
I0
sg22
I0
sg23
I0
sg25
I0
sg17
I0
sg20
I0
sa(dp937
g3
I0
sg4
I0
sg5
I0
sg6
I0
sg7
I0
sg8
I0
sg9
I0
sg10
I0
sg11
I0
sg12
I0
sg13
I0
sg14
I0
sg15
I1
sg2
I0
sg16
I0
sg18
I0
sg19
I0
sg20
I0
sg21
I0
sg22
I0
sg23
I0
sg24
I0
sg17
I0
sg25
I0
sa(dp938
g3
I0
sg4
I0
sg10
I0
sg5
I0
sg7
I0
sg8
I1
sg11
I0
sg9
I0
sg6
I0
sg12
I0
sg13
I0
sg14
I0
sg25
I0
sg21
I0
sg2
I0
sg16
I0
sg18
I0
sg19
I0
sg15
I0
sg22
I0
sg23
I0
sg24
I0
sg17
I0
sg20
I0
sa(dp939
g3
I0
sg4
I0
sg5
I0
sg6
I0
sg7
I0
sg8
I0
sg9
I0
sg10
I0
sg11
I1
sg12
I0
sg13
I0
sg14
I0
sg24
I0
sg15
I0
sg2
I0
sg16
I0
sg18
I0
sg19
I0
sg21
I0
sg22
I0
sg23
I0
sg25
I0
sg17
I0
sg20
I0
sa(dp940
g3
I0
sg4
I0
sg10
I0
sg5
I0
sg7
I0
sg8
I1
sg11
I0
sg9
I0
sg6
I0
sg12
I0
sg13
I0
sg14
I0
sg21
I0
sg2
I0
sg16
I0
sg18
I0
sg19
I0
sg20
I0
sg15
I0
sg22
I0
sg23
I0
sg24
I0
sg17
I0
sg25
I0
sa(dp941
g3
I0
sg4
I0
sg5
I0
sg6
I0
sg7
I0
sg8
I0
sg9
I0
sg10
I0
sg11
I0
sg12
I0
sg13
I0
sg14
I0
sg25
I0
sg15
I0
sg2
I1
sg16
I0
sg18
I0
sg19
I0
sg21
I0
sg22
I0
sg23
I0
sg24
I0
sg17
I0
sg20
I0
sa(dp942
g3
I0
sg4
I0
sg10
I0
sg5
I0
sg7
I0
sg8
I0
sg11
I0
sg9
I0
sg6
I0
sg12
I0
sg13
I0
sg14
I0
sg24
I0
sg21
I0
sg2
I0
sg16
I0
sg18
I0
sg19
I0
sg15
I0
sg22
I0
sg23
I0
sg25
I1
sg17
I0
sg20
I0
sa(dp943
g3
I0
sg4
I0
sg5
I0
sg6
I0
sg7
I0
sg8
I0
sg9
I0
sg10
I0
sg11
I0
sg12
I0
sg13
I0
sg14
I0
sg15
I0
sg2
I1
sg16
I0
sg18
I0
sg19
I0
sg20
I0
sg21
I0
sg22
I0
sg23
I0
sg24
I0
sg17
I0
sg25
I0
sa(dp944
g3
I0
sg4
I0
sg10
I0
sg5
I0
sg7
I1
sg8
I0
sg11
I0
sg9
I0
sg6
I0
sg12
I0
sg13
I0
sg14
I0
sg25
I0
sg21
I0
sg2
I0
sg16
I0
sg18
I0
sg19
I0
sg15
I0
sg22
I0
sg23
I0
sg24
I0
sg17
I0
sg20
I0
sa(dp945
g3
I0
sg4
I0
sg5
I0
sg6
I0
sg7
I1
sg8
I0
sg9
I0
sg10
I0
sg11
I0
sg12
I0
sg13
I0
sg14
I0
sg24
I0
sg15
I0
sg2
I0
sg16
I0
sg18
I0
sg19
I0
sg21
I0
sg22
I0
sg23
I0
sg25
I0
sg17
I0
sg20
I0
sa(dp946
g3
I0
sg4
I0
sg10
I0
sg5
I0
sg7
I0
sg8
I0
sg11
I0
sg9
I0
sg6
I0
sg12
I1
sg13
I0
sg14
I0
sg21
I0
sg2
I0
sg16
I0
sg18
I0
sg19
I0
sg20
I0
sg15
I0
sg22
I0
sg23
I0
sg24
I0
sg17
I0
sg25
I0
sa(dp947
g3
I0
sg4
I0
sg5
I0
sg6
I0
sg7
I0
sg8
I1
sg9
I0
sg10
I0
sg11
I0
sg12
I0
sg13
I0
sg14
I0
sg25
I0
sg15
I0
sg2
I0
sg16
I0
sg18
I0
sg19
I0
sg21
I0
sg22
I0
sg23
I0
sg24
I0
sg17
I0
sg20
I0
sa(dp948
g3
I0
sg4
I0
sg10
I0
sg5
I0
sg7
I0
sg8
I0
sg11
I0
sg9
I0
sg6
I0
sg12
I0
sg13
I0
sg14
I0
sg24
I1
sg21
I0
sg2
I0
sg16
I0
sg18
I0
sg19
I0
sg15
I0
sg22
I0
sg23
I0
sg25
I0
sg17
I0
sg20
I0
sa(dp949
g3
I0
sg4
I0
sg5
I0
sg6
I0
sg7
I0
sg8
I1
sg9
I0
sg10
I0
sg11
I0
sg12
I0
sg13
I0
sg14
I0
sg15
I0
sg2
I0
sg16
I0
sg18
I0
sg19
I0
sg20
I0
sg21
I0
sg22
I0
sg23
I0
sg24
I0
sg17
I0
sg25
I0
sa(dp950
g3
I0
sg4
I0
sg10
I0
sg5
I0
sg7
I1
sg8
I0
sg11
I0
sg9
I0
sg6
I0
sg12
I0
sg13
I0
sg14
I0
sg25
I0
sg21
I0
sg2
I0
sg16
I0
sg18
I0
sg19
I0
sg15
I0
sg22
I0
sg23
I0
sg24
I0
sg17
I0
sg20
I0
sa(dp951
g3
I0
sg4
I0
sg5
I0
sg6
I0
sg7
I0
sg8
I1
sg9
I0
sg10
I0
sg11
I0
sg12
I0
sg13
I0
sg14
I0
sg24
I0
sg15
I0
sg2
I0
sg16
I0
sg18
I0
sg19
I0
sg21
I0
sg22
I0
sg23
I0
sg25
I0
sg17
I0
sg20
I0
sa(dp952
g3
I0
sg4
I0
sg10
I0
sg5
I0
sg7
I0
sg8
I1
sg11
I0
sg9
I0
sg6
I0
sg12
I0
sg13
I0
sg14
I0
sg21
I0
sg2
I0
sg16
I0
sg18
I0
sg19
I0
sg20
I0
sg15
I0
sg22
I0
sg23
I0
sg24
I0
sg17
I0
sg25
I0
sa(dp953
g3
I0
sg4
I0
sg5
I0
sg6
I0
sg7
I1
sg8
I0
sg9
I0
sg10
I0
sg11
I0
sg12
I0
sg13
I0
sg14
I0
sg25
I0
sg15
I0
sg2
I0
sg16
I0
sg18
I0
sg19
I0
sg21
I0
sg22
I0
sg23
I0
sg24
I0
sg17
I0
sg20
I0
sa(dp954
g3
I0
sg4
I0
sg10
I0
sg5
I0
sg7
I0
sg8
I0
sg11
I0
sg9
I0
sg6
I0
sg12
I0
sg13
I0
sg14
I0
sg24
I0
sg21
I0
sg2
I0
sg16
I0
sg18
I0
sg19
I0
sg15
I1
sg22
I0
sg23
I0
sg25
I0
sg17
I0
sg20
I0
sa(dp955
g3
I0
sg4
I0
sg5
I0
sg6
I0
sg7
I0
sg8
I0
sg9
I0
sg10
I0
sg11
I0
sg12
I0
sg13
I0
sg14
I0
sg15
I0
sg2
I0
sg16
I0
sg18
I0
sg19
I1
sg20
I0
sg21
I0
sg22
I0
sg23
I0
sg24
I0
sg17
I0
sg25
I0
sa(dp956
g3
I0
sg4
I1
sg10
I0
sg5
I0
sg7
I0
sg8
I0
sg11
I0
sg9
I0
sg6
I0
sg12
I0
sg13
I0
sg14
I0
sg25
I0
sg21
I0
sg2
I0
sg16
I0
sg18
I0
sg19
I0
sg15
I0
sg22
I0
sg23
I0
sg24
I0
sg17
I0
sg20
I0
sa(dp957
g3
I0
sg4
I0
sg5
I0
sg6
I0
sg7
I0
sg8
I1
sg9
I0
sg10
I0
sg11
I0
sg12
I0
sg13
I0
sg14
I0
sg24
I0
sg15
I0
sg2
I0
sg16
I0
sg18
I0
sg19
I0
sg21
I0
sg22
I0
sg23
I0
sg25
I0
sg17
I0
sg20
I0
sa(dp958
g3
I0
sg4
I0
sg10
I0
sg5
I0
sg7
I0
sg8
I0
sg11
I0
sg9
I0
sg6
I0
sg12
I1
sg13
I0
sg14
I0
sg21
I0
sg2
I0
sg16
I0
sg18
I0
sg19
I0
sg20
I0
sg15
I0
sg22
I0
sg23
I0
sg24
I0
sg17
I0
sg25
I0
sa(dp959
g3
I0
sg4
I1
sg5
I0
sg6
I0
sg7
I0
sg8
I0
sg9
I0
sg10
I0
sg11
I0
sg12
I0
sg13
I0
sg14
I0
sg25
I0
sg15
I0
sg2
I0
sg16
I0
sg18
I0
sg19
I0
sg21
I0
sg22
I0
sg23
I0
sg24
I0
sg17
I0
sg20
I0
sa(dp960
g3
I0
sg4
I0
sg10
I0
sg5
I0
sg7
I1
sg8
I0
sg11
I0
sg9
I0
sg6
I0
sg12
I0
sg13
I0
sg14
I0
sg24
I0
sg21
I0
sg2
I0
sg16
I0
sg18
I0
sg19
I0
sg15
I0
sg22
I0
sg23
I0
sg25
I0
sg17
I0
sg20
I0
sa(dp961
g3
I0
sg4
I0
sg5
I0
sg6
I0
sg7
I0
sg8
I1
sg9
I0
sg10
I0
sg11
I0
sg12
I0
sg13
I0
sg14
I0
sg15
I0
sg2
I0
sg16
I0
sg18
I0
sg19
I0
sg20
I0
sg21
I0
sg22
I0
sg23
I0
sg24
I0
sg17
I0
sg25
I0
sa(dp962
g3
I0
sg4
I0
sg10
I0
sg5
I0
sg7
I0
sg8
I0
sg11
I0
sg9
I0
sg6
I0
sg12
I0
sg13
I0
sg14
I0
sg25
I0
sg21
I0
sg2
I0
sg16
I1
sg18
I0
sg19
I0
sg15
I0
sg22
I0
sg23
I0
sg24
I0
sg17
I0
sg20
I0
sa(dp963
g3
I0
sg4
I0
sg5
I0
sg6
I0
sg7
I0
sg8
I0
sg9
I0
sg10
I0
sg11
I0
sg12
I0
sg13
I0
sg14
I0
sg24
I0
sg15
I0
sg2
I0
sg16
I1
sg18
I0
sg19
I0
sg21
I0
sg22
I0
sg23
I0
sg25
I0
sg17
I0
sg20
I0
sa(dp964
g3
I0
sg4
I0
sg10
I0
sg5
I0
sg7
I0
sg8
I1
sg11
I0
sg9
I0
sg6
I0
sg12
I0
sg13
I0
sg14
I0
sg21
I0
sg2
I0
sg16
I0
sg18
I0
sg19
I0
sg20
I0
sg15
I0
sg22
I0
sg23
I0
sg24
I0
sg17
I0
sg25
I0
sa(dp965
g3
I0
sg4
I0
sg5
I0
sg6
I0
sg7
I0
sg8
I0
sg9
I1
sg10
I0
sg11
I0
sg12
I0
sg13
I0
sg14
I0
sg25
I0
sg15
I0
sg2
I0
sg16
I0
sg18
I0
sg19
I0
sg21
I0
sg22
I0
sg23
I0
sg24
I0
sg17
I0
sg20
I0
sa(dp966
g3
I0
sg4
I0
sg10
I0
sg5
I0
sg7
I1
sg8
I0
sg11
I0
sg9
I0
sg6
I0
sg12
I0
sg13
I0
sg14
I0
sg24
I0
sg21
I0
sg2
I0
sg16
I0
sg18
I0
sg19
I0
sg15
I0
sg22
I0
sg23
I0
sg25
I0
sg17
I0
sg20
I0
sa(dp967
g3
I0
sg4
I0
sg5
I0
sg6
I0
sg7
I0
sg8
I0
sg9
I0
sg10
I0
sg11
I0
sg12
I0
sg13
I0
sg14
I1
sg15
I0
sg2
I0
sg16
I0
sg18
I0
sg19
I0
sg20
I0
sg21
I0
sg22
I0
sg23
I0
sg24
I0
sg17
I0
sg25
I0
sa(dp968
g3
I0
sg4
I0
sg10
I0
sg5
I0
sg7
I0
sg8
I0
sg11
I0
sg9
I0
sg6
I0
sg12
I0
sg13
I0
sg14
I0
sg25
I0
sg21
I0
sg2
I0
sg16
I0
sg18
I0
sg19
I0
sg15
I0
sg22
I0
sg23
I1
sg24
I0
sg17
I0
sg20
I0
sa(dp969
g3
I0
sg4
I0
sg5
I0
sg6
I0
sg7
I1
sg8
I0
sg9
I0
sg10
I0
sg11
I0
sg12
I0
sg13
I0
sg14
I0
sg24
I0
sg15
I0
sg2
I0
sg16
I0
sg18
I0
sg19
I0
sg21
I0
sg22
I0
sg23
I0
sg25
I0
sg17
I0
sg20
I0
sa(dp970
g3
I0
sg4
I0
sg10
I0
sg5
I0
sg7
I0
sg8
I0
sg11
I0
sg9
I0
sg6
I0
sg12
I0
sg13
I0
sg14
I0
sg21
I0
sg2
I0
sg16
I1
sg18
I0
sg19
I0
sg20
I0
sg15
I0
sg22
I0
sg23
I0
sg24
I0
sg17
I0
sg25
I0
sa(dp971
g3
I0
sg4
I0
sg5
I0
sg6
I0
sg7
I0
sg8
I0
sg9
I0
sg10
I0
sg11
I0
sg12
I1
sg13
I0
sg14
I0
sg25
I0
sg15
I0
sg2
I0
sg16
I0
sg18
I0
sg19
I0
sg21
I0
sg22
I0
sg23
I0
sg24
I0
sg17
I0
sg20
I0
sa(dp972
g3
I0
sg4
I0
sg10
I0
sg5
I0
sg7
I0
sg8
I0
sg11
I0
sg9
I0
sg6
I0
sg12
I1
sg13
I0
sg14
I0
sg24
I0
sg21
I0
sg2
I0
sg16
I0
sg18
I0
sg19
I0
sg15
I0
sg22
I0
sg23
I0
sg25
I0
sg17
I0
sg20
I0
sa(dp973
g3
I0
sg4
I0
sg5
I0
sg6
I0
sg7
I1
sg8
I0
sg9
I0
sg10
I0
sg11
I0
sg12
I0
sg13
I0
sg14
I0
sg15
I0
sg2
I0
sg16
I0
sg18
I0
sg19
I0
sg20
I0
sg21
I0
sg22
I0
sg23
I0
sg24
I0
sg17
I0
sg25
I0
sa(dp974
g3
I0
sg4
I0
sg10
I0
sg5
I0
sg7
I0
sg8
I0
sg11
I0
sg9
I0
sg6
I0
sg12
I0
sg13
I0
sg14
I1
sg25
I0
sg21
I0
sg2
I0
sg16
I0
sg18
I0
sg19
I0
sg15
I0
sg22
I0
sg23
I0
sg24
I0
sg17
I0
sg20
I0
sa(dp975
g3
I0
sg4
I0
sg5
I0
sg6
I0
sg7
I0
sg8
I0
sg9
I0
sg10
I0
sg11
I0
sg12
I0
sg13
I0
sg14
I0
sg24
I0
sg15
I0
sg2
I1
sg16
I0
sg18
I0
sg19
I0
sg21
I0
sg22
I0
sg23
I0
sg25
I0
sg17
I0
sg20
I0
sa(dp976
g3
I0
sg4
I0
sg10
I0
sg5
I0
sg7
I0
sg8
I0
sg11
I0
sg9
I0
sg6
I0
sg12
I0
sg13
I0
sg14
I0
sg21
I0
sg2
I0
sg16
I0
sg18
I0
sg19
I0
sg20
I0
sg15
I0
sg22
I1
sg23
I0
sg24
I0
sg17
I0
sg25
I0
sa(dp977
g3
I0
sg4
I0
sg5
I0
sg6
I1
sg7
I0
sg8
I0
sg9
I0
sg10
I0
sg11
I0
sg12
I0
sg13
I0
sg14
I0
sg25
I0
sg15
I0
sg2
I0
sg16
I0
sg18
I0
sg19
I0
sg21
I0
sg22
I0
sg23
I0
sg24
I0
sg17
I0
sg20
I0
sa(dp978
g3
I0
sg4
I0
sg10
I0
sg5
I0
sg7
I0
sg8
I1
sg11
I0
sg9
I0
sg6
I0
sg12
I0
sg13
I0
sg14
I0
sg24
I0
sg21
I0
sg2
I0
sg16
I0
sg18
I0
sg19
I0
sg15
I0
sg22
I0
sg23
I0
sg25
I0
sg17
I0
sg20
I0
sa(dp979
g3
I0
sg4
I0
sg5
I0
sg6
I0
sg7
I0
sg8
I0
sg9
I0
sg10
I0
sg11
I0
sg12
I0
sg13
I0
sg14
I0
sg15
I0
sg2
I0
sg16
I0
sg18
I0
sg19
I0
sg20
I0
sg21
I0
sg22
I0
sg23
I0
sg24
I1
sg17
I0
sg25
I0
sa(dp980
g3
I0
sg4
I0
sg10
I0
sg5
I0
sg7
I0
sg8
I1
sg11
I0
sg9
I0
sg6
I0
sg12
I0
sg13
I0
sg14
I0
sg25
I0
sg21
I0
sg2
I0
sg16
I0
sg18
I0
sg19
I0
sg15
I0
sg22
I0
sg23
I0
sg24
I0
sg17
I0
sg20
I0
sa(dp981
g3
I0
sg4
I0
sg5
I0
sg6
I0
sg7
I1
sg8
I0
sg9
I0
sg10
I0
sg11
I0
sg12
I0
sg13
I0
sg14
I0
sg24
I0
sg15
I0
sg2
I0
sg16
I0
sg18
I0
sg19
I0
sg21
I0
sg22
I0
sg23
I0
sg25
I0
sg17
I0
sg20
I0
sa(dp982
g3
I0
sg4
I0
sg10
I0
sg5
I1
sg7
I0
sg8
I0
sg11
I0
sg9
I0
sg6
I0
sg12
I0
sg13
I0
sg14
I0
sg21
I0
sg2
I0
sg16
I0
sg18
I0
sg19
I0
sg20
I0
sg15
I0
sg22
I0
sg23
I0
sg24
I0
sg17
I0
sg25
I0
sa(dp983
g3
I0
sg4
I0
sg5
I0
sg6
I0
sg7
I0
sg8
I0
sg9
I0
sg10
I0
sg11
I0
sg12
I0
sg13
I0
sg14
I0
sg25
I0
sg15
I1
sg2
I0
sg16
I0
sg18
I0
sg19
I0
sg21
I0
sg22
I0
sg23
I0
sg24
I0
sg17
I0
sg20
I0
sa.