(dp0
S'GUESS'
p1
I0
sS'LACOSTE'
p2
I0
sS'ADIDAS'
p3
I0
sS'DIESEL'
p4
I0
sS'BAPE'
p5
I0
sS'CARHARTT'
p6
I0
sS'TIMBERLAND'
p7
I0
sS'RALPHLAUREN'
p8
I0
sS'STUSSY'
p9
I0
sS'GAP'
p10
I0
sS'ARMANI'
p11
I0
sS'CALVINKLEIN'
p12
I0
sS'UNIQLO'
p13
I0
sS'BURBERRY'
p14
I0
sS'VANS'
p15
I0
sS'GIVENCHY'
p16
I0
sS'GUCCI'
p17
I0
sS'LEVIS'
p18
I0
sS'COMMEDESGARCONS'
p19
I0
sS'NIKE'
p20
I0
sS'LOUISVUITTON'
p21
I0
sS'NEWBALANCE'
p22
I0
sS'ZARA'
p23
I0
sS'APC'
p24
I0
s.